(dp0
V2302
p1
c__builtin__
set
p2
((lp3
V2309
p4
aV2308
p5
aV2303
p6
ag1
aV2307
p7
atp8
Rp9
sV1564
p10
g2
((lp11
V1561
p12
ag10
atp13
Rp14
sV993
p15
g2
((lp16
g15
atp17
Rp18
sV1257
p19
g2
((lp20
g19
atp21
Rp22
sV1947
p23
g2
((lp24
g23
atp25
Rp26
sV1945
p27
g2
((lp28
V1943
p29
ag27
atp30
Rp31
sV346
p32
g2
((lp33
V344
p34
aV345
p35
ag32
aV347
p36
atp37
Rp38
sV2078
p39
g2
((lp40
V2079
p41
ag39
aV2171
p42
aV2076
p43
atp44
Rp45
sV342
p46
g2
((lp47
V341
p48
ag46
atp49
Rp50
sV1252
p51
g2
((lp52
V1254
p53
ag51
aV1251
p54
atp55
Rp56
sV349
p57
g2
((lp58
V362
p59
ag57
atp60
Rp61
sV816
p62
g2
((lp63
g62
atp64
Rp65
sV817
p66
g2
((lp67
g66
atp68
Rp69
sV1260
p70
g2
((lp71
V1256
p72
ag70
aV1253
p73
aV1259
p74
atp75
Rp76
sV454
p77
g2
((lp78
V458
p79
aV451
p80
ag77
aV455
p81
aV456
p82
atp83
Rp84
sV2490
p85
g2
((lp86
g85
atp87
Rp88
sV717
p89
g2
((lp90
g89
aV718
p91
atp92
Rp93
sV2175
p94
g2
((lp95
V2233
p96
aV2235
p97
aV2234
p98
ag94
atp99
Rp100
sV713
p101
g2
((lp102
V724
p103
ag101
atp104
Rp105
sV1795
p106
g2
((lp107
V1792
p108
ag106
atp109
Rp110
sV1266
p111
g2
((lp112
g111
atp113
Rp114
sV1491
p115
g2
((lp116
V1490
p117
ag115
aV1489
p118
atp119
Rp120
sV661
p121
g2
((lp122
g121
atp123
Rp124
sV1496
p125
g2
((lp126
g125
atp127
Rp128
sV1396
p129
g2
((lp130
g129
atp131
Rp132
sV660
p133
g2
((lp134
V655
p135
ag133
atp136
Rp137
sV1068
p138
g2
((lp139
g138
atp140
Rp141
sV1702
p142
g2
((lp143
V1701
p144
ag142
atp145
Rp146
sV2070
p147
g2
((lp148
g147
atp149
Rp150
sV1997
p151
g2
((lp152
g151
aV1996
p153
atp154
Rp155
sV1061
p156
g2
((lp157
g156
atp158
Rp159
sV1709
p160
g2
((lp161
V1708
p162
ag160
aV1706
p163
atp164
Rp165
sV1168
p166
g2
((lp167
g166
atp168
Rp169
sV1065
p170
g2
((lp171
V1063
p172
aV1062
p173
ag170
atp174
Rp175
sV2313
p176
g2
((lp177
V2316
p178
aV2317
p179
ag176
aV2318
p180
atp181
Rp182
sV1067
p183
g2
((lp184
V1059
p185
ag183
atp186
Rp187
sV2311
p188
g2
((lp189
V2312
p190
aV2310
p191
ag188
atp192
Rp193
sV1258
p194
g2
((lp195
g194
atp196
Rp197
sV1669
p198
g2
((lp199
V1924
p200
aV1926
p201
ag198
atp202
Rp203
sV296
p204
g2
((lp205
g204
aV301
p206
aV298
p207
aV299
p208
atp209
Rp210
sV294
p211
g2
((lp212
V297
p213
ag211
atp214
Rp215
sV912
p216
g2
((lp217
V914
p218
aV913
p219
ag216
atp220
Rp221
sV1661
p222
g2
((lp223
V1828
p224
ag222
atp225
Rp226
sV591
p227
g2
((lp228
g227
aV599
p229
aV587
p230
atp231
Rp232
sV1129
p233
g2
((lp234
g233
aV1175
p235
atp236
Rp237
sV1085
p238
g2
((lp239
V1086
p240
ag238
aV1098
p241
atp242
Rp243
sV1083
p244
g2
((lp245
g244
atp246
Rp247
sV594
p248
g2
((lp249
V595
p250
ag248
aV603
p251
atp252
Rp253
sV597
p254
g2
((lp255
V1038
p256
aV1040
p257
ag254
atp258
Rp259
sV1080
p260
g2
((lp261
V785
p262
aV786
p263
aV1081
p264
ag260
atp265
Rp266
sV195
p267
g2
((lp268
g267
aV199
p269
aV198
p270
atp271
Rp272
sV598
p273
g2
((lp274
V1155
p275
ag273
aV1156
p276
aV1147
p277
atp278
Rp279
sV1123
p280
g2
((lp281
V1122
p282
ag280
atp283
Rp284
sV1124
p285
g2
((lp286
g285
aV1125
p287
atp288
Rp289
sV193
p290
g2
((lp291
V201
p292
aV200
p293
ag290
aV194
p294
atp295
Rp296
sV1127
p297
g2
((lp298
V1128
p299
ag297
atp300
Rp301
sV714
p302
g2
((lp303
V715
p304
ag302
atp305
Rp306
sV275
p307
g2
((lp308
g307
atp309
Rp310
sV2124
p311
g2
((lp312
V2128
p313
aV2125
p314
ag311
atp315
Rp316
sV1526
p317
g2
((lp318
V1524
p319
ag317
aV1529
p320
aV1531
p321
atp322
Rp323
sV278
p324
g2
((lp325
g324
atp326
Rp327
sV279
p328
g2
((lp329
g328
aV272
p330
aV285
p331
aV280
p332
aV271
p333
atp334
Rp335
sV1540
p336
g2
((lp337
V102
p338
aV103
p339
ag336
atp340
Rp341
sV444
p342
g2
((lp343
g342
atp344
Rp345
sV569
p346
g2
((lp347
g346
aV570
p348
aV576
p349
aV574
p350
atp351
Rp352
sV457
p353
g2
((lp354
V452
p355
ag353
atp356
Rp357
sV2541
p358
g2
((lp359
V2542
p360
ag358
aV2552
p361
atp362
Rp363
sV2547
p364
g2
((lp365
g364
atp366
Rp367
sV2545
p368
g2
((lp369
V2518
p370
ag368
aV2522
p371
atp372
Rp373
sV1455
p374
g2
((lp375
g374
atp376
Rp377
sV2549
p378
g2
((lp379
V2550
p380
ag378
aV2554
p381
aV2555
p382
atp383
Rp384
sV2548
p385
g2
((lp386
V2538
p387
ag385
aV2546
p388
atp389
Rp390
sV1456
p391
g2
((lp392
g391
aV1457
p393
atp394
Rp395
sV1409
p396
g2
((lp397
V1418
p398
aV1419
p399
ag396
aV1420
p400
atp401
Rp402
sV527
p403
g2
((lp404
g403
atp405
Rp406
sV2385
p407
g2
((lp408
V2389
p409
ag407
aV2387
p410
atp411
Rp412
sV2384
p413
g2
((lp414
V2374
p415
aV2383
p416
aV2382
p417
ag413
aV2373
p418
atp419
Rp420
sV522
p421
g2
((lp422
V524
p423
aV525
p424
aV526
p425
ag421
atp426
Rp427
sV523
p428
g2
((lp429
V521
p430
ag428
atp431
Rp432
sV2388
p433
g2
((lp434
g433
atp435
Rp436
sV2260
p437
g2
((lp438
g437
aV2252
p439
atp440
Rp441
sV2261
p442
g2
((lp443
V2262
p444
aV2263
p445
ag442
atp446
Rp447
sV1010
p448
g2
((lp449
V1024
p450
ag448
atp451
Rp452
sV2267
p453
g2
((lp454
V2268
p455
ag453
atp456
Rp457
sV1012
p458
g2
((lp459
V1016
p460
ag458
atp461
Rp462
sV1013
p463
g2
((lp464
V1014
p465
ag463
atp466
Rp467
sV449
p468
g2
((lp469
V450
p470
ag468
atp471
Rp472
sV2283
p473
g2
((lp474
g473
atp475
Rp476
sV1339
p477
g2
((lp478
V1340
p479
aV1328
p480
ag477
atp481
Rp482
sV1231
p483
g2
((lp484
V1234
p485
ag483
atp486
Rp487
sV2444
p488
g2
((lp489
V2443
p490
ag488
aV2445
p491
atp492
Rp493
sV1233
p494
g2
((lp495
V1497
p496
aV2371
p497
aV1232
p498
ag494
atp499
Rp500
sV1335
p501
g2
((lp502
g501
aV1337
p503
atp504
Rp505
sV2284
p506
g2
((lp507
V2289
p508
aV2287
p509
ag506
aV2281
p510
atp511
Rp512
sV441
p513
g2
((lp514
V443
p515
ag513
atp516
Rp517
sV1101
p518
g2
((lp519
V1121
p520
aV1100
p521
ag518
atp522
Rp523
sV1331
p524
g2
((lp525
V1317
p526
aV1334
p527
ag524
atp528
Rp529
sV1239
p530
g2
((lp531
g530
atp532
Rp533
sV2285
p534
g2
((lp535
g534
aV2265
p536
atp537
Rp538
sV2589
p539
g2
((lp540
g539
aV2566
p541
atp542
Rp543
sV588
p544
g2
((lp545
V593
p546
aV592
p547
ag544
aV589
p548
atp549
Rp550
sV106
p551
g2
((lp552
V111
p553
aV108
p554
aV109
p555
ag551
aV107
p556
atp557
Rp558
sV2101
p559
g2
((lp560
V2102
p561
ag559
atp562
Rp563
sV2520
p564
g2
((lp565
V2521
p566
ag564
atp567
Rp568
sV903
p569
g2
((lp570
g569
atp571
Rp572
sV1849
p573
g2
((lp574
g573
atp575
Rp576
sV2045
p577
g2
((lp578
V2046
p579
aV2047
p580
ag577
atp581
Rp582
sV907
p583
g2
((lp584
V838
p585
ag583
atp586
Rp587
sV908
p588
g2
((lp589
V845
p590
ag588
aV909
p591
aV910
p592
atp593
Rp594
sV1840
p595
g2
((lp596
g595
atp597
Rp598
sV1846
p599
g2
((lp600
V1824
p601
ag599
aV1765
p602
atp603
Rp604
sV1845
p605
g2
((lp606
V1844
p607
ag605
aV67
p608
atp609
Rp610
sV2106
p611
g2
((lp612
g611
atp613
Rp614
sV1537
p615
g2
((lp616
g615
atp617
Rp618
sV640
p619
g2
((lp620
g619
aV645
p621
aV639
p622
atp623
Rp624
sV1535
p625
g2
((lp626
g625
atp627
Rp628
sV642
p629
g2
((lp630
V641
p631
aV643
p632
ag629
aV647
p633
aV646
p634
atp635
Rp636
sV1533
p637
g2
((lp638
V1520
p639
aV1534
p640
ag637
aV1532
p641
aV1536
p642
atp643
Rp644
sV644
p645
g2
((lp646
V666
p647
ag645
atp648
Rp649
sV1247
p650
g2
((lp651
g650
atp652
Rp653
sV1530
p654
g2
((lp655
V1525
p656
ag654
atp657
Rp658
sV1249
p659
g2
((lp660
g659
aV1250
p661
atp662
Rp663
sV437
p664
g2
((lp665
g664
aV440
p666
aV438
p667
aV439
p668
atp669
Rp670
sV2167
p671
g2
((lp672
g671
aV2169
p673
aV2168
p674
atp675
Rp676
sV2104
p677
g2
((lp678
V2111
p679
aV2105
p680
ag677
atp681
Rp682
sV433
p683
g2
((lp684
V434
p685
ag683
atp686
Rp687
sV430
p688
g2
((lp689
V423
p690
ag688
atp691
Rp692
sV2162
p693
g2
((lp694
V2163
p695
ag693
atp696
Rp697
sV2617
p698
g2
((lp699
g698
atp700
Rp701
sV2615
p702
g2
((lp703
V2616
p704
ag702
aV2608
p705
aV2618
p706
atp707
Rp708
sV2485
p709
g2
((lp710
g709
aV2480
p711
atp712
Rp713
sV339
p714
g2
((lp715
V337
p716
ag714
aV338
p717
atp718
Rp719
sV2612
p720
g2
((lp721
g720
aV2609
p722
atp723
Rp724
sV2610
p725
g2
((lp726
V2614
p727
aV2613
p728
aV2601
p729
aV2611
p730
ag725
atp731
Rp732
sV336
p733
g2
((lp734
V335
p735
ag733
aV340
p736
atp737
Rp738
sV331
p739
g2
((lp740
g739
aV332
p741
atp742
Rp743
sV2619
p744
g2
((lp745
g744
atp746
Rp747
sV2483
p748
g2
((lp749
V2484
p750
ag748
aV2523
p751
atp752
Rp753
sV1466
p754
g2
((lp755
V1465
p756
aV1464
p757
ag754
atp758
Rp759
sV1189
p760
g2
((lp761
V1191
p762
aV1190
p763
ag760
atp764
Rp765
sV2061
p766
g2
((lp767
g766
aV2062
p768
aV2063
p769
atp770
Rp771
sV1907
p772
g2
((lp773
g772
aV1904
p774
aV1910
p775
atp776
Rp777
sV2481
p778
g2
((lp779
g778
atp780
Rp781
sV1903
p782
g2
((lp783
V1905
p784
ag782
atp785
Rp786
sV1518
p787
g2
((lp788
g787
aV1521
p789
atp790
Rp791
sV856
p792
g2
((lp793
g792
aV858
p794
atp795
Rp796
sV850
p797
g2
((lp798
g797
atp799
Rp800
sV851
p801
g2
((lp802
V855
p803
aV829
p804
ag801
atp805
Rp806
sV852
p807
g2
((lp808
V854
p809
ag807
aV853
p810
atp811
Rp812
sV2471
p813
g2
((lp814
V2472
p815
ag813
atp816
Rp817
sV1523
p818
g2
((lp819
g818
atp820
Rp821
sV2248
p822
g2
((lp823
g822
atp824
Rp825
sV1401
p826
g2
((lp827
V1402
p828
ag826
atp829
Rp830
sV1655
p831
g2
((lp832
V1928
p833
aV1901
p834
aV1902
p835
ag831
atp836
Rp837
sV1468
p838
g2
((lp839
V1467
p840
aV1469
p841
ag838
atp842
Rp843
sV1435
p844
g2
((lp845
V1436
p846
aV1437
p847
aV1434
p848
ag844
atp849
Rp850
sV1635
p851
g2
((lp852
g851
aV1636
p853
atp854
Rp855
sV2245
p856
g2
((lp857
V2244
p858
ag856
aV2246
p859
aV2238
p860
atp861
Rp862
sV92
p863
g2
((lp864
V91
p865
aV90
p866
aV93
p867
ag863
atp868
Rp869
sV96
p870
g2
((lp871
V99
p872
aV98
p873
aV97
p874
ag870
atp875
Rp876
sV1621
p877
g2
((lp878
g877
atp879
Rp880
sV1992
p881
g2
((lp882
V1993
p883
ag881
aV485
p884
atp885
Rp886
sV1995
p887
g2
((lp888
g887
aV1994
p889
atp890
Rp891
sV1626
p892
g2
((lp893
V1601
p894
aV1629
p895
ag892
atp896
Rp897
sV1625
p898
g2
((lp899
V1628
p900
aV1627
p901
ag898
atp902
Rp903
sV1998
p904
g2
((lp905
g904
atp906
Rp907
sV1513
p908
g2
((lp909
V1515
p910
aV1516
p911
ag908
aV1512
p912
atp913
Rp914
sV2243
p915
g2
((lp916
V2247
p917
aV2240
p918
aV2241
p919
aV2242
p920
ag915
atp921
Rp922
sV1381
p923
g2
((lp924
V1385
p925
ag923
aV1377
p926
atp927
Rp928
sV744
p929
g2
((lp930
g929
aV770
p931
aV746
p932
aV747
p933
atp934
Rp935
sV745
p936
g2
((lp937
V741
p938
aV743
p939
ag936
atp940
Rp941
sV748
p942
g2
((lp943
g942
atp944
Rp945
sV557
p946
g2
((lp947
g946
aV558
p948
atp949
Rp950
sV556
p951
g2
((lp952
V555
p953
aV554
p954
ag951
atp955
Rp956
sV997
p957
g2
((lp958
V1005
p959
ag957
aV1018
p960
aV1011
p961
atp962
Rp963
sV552
p964
g2
((lp965
V571
p966
aV1035
p967
ag964
atp968
Rp969
sV1637
p970
g2
((lp971
V1642
p972
aV1643
p973
ag970
atp974
Rp975
sV2372
p976
g2
((lp977
V2370
p978
ag976
atp979
Rp980
sV234
p981
g2
((lp982
g981
aV235
p983
aV238
p984
atp985
Rp986
sV236
p987
g2
((lp988
g987
aV241
p989
aV239
p990
atp991
Rp992
sV237
p993
g2
((lp994
g993
atp995
Rp996
sV152
p997
g2
((lp998
V153
p999
ag997
aV161
p1000
atp1001
Rp1002
sV232
p1003
g2
((lp1004
g1003
atp1005
Rp1006
sV233
p1007
g2
((lp1008
V100
p1009
ag1007
atp1010
Rp1011
sV2345
p1012
g2
((lp1013
g1012
aV2353
p1014
aV2351
p1015
aV2342
p1016
aV2344
p1017
atp1018
Rp1019
sV1053
p1020
g2
((lp1021
V1050
p1022
ag1020
aV779
p1023
atp1024
Rp1025
sV2341
p1026
g2
((lp1027
g1026
aV2357
p1028
atp1029
Rp1030
sV1055
p1031
g2
((lp1032
V1054
p1033
ag1031
atp1034
Rp1035
sV1056
p1036
g2
((lp1037
V1052
p1038
aV1084
p1039
aV1082
p1040
ag1036
atp1041
Rp1042
sV2229
p1043
g2
((lp1044
V2226
p1045
aV2231
p1046
aV2230
p1047
aV2228
p1048
ag1043
atp1049
Rp1050
sV2227
p1051
g2
((lp1052
g1051
atp1053
Rp1054
sV2225
p1055
g2
((lp1056
g1055
aV2216
p1057
aV2232
p1058
atp1059
Rp1060
sV2222
p1061
g2
((lp1062
V2224
p1063
ag1061
aV2223
p1064
atp1065
Rp1066
sV1194
p1067
g2
((lp1068
g1067
atp1069
Rp1070
sV2220
p1071
g2
((lp1072
V2219
p1073
ag1071
atp1074
Rp1075
sV1196
p1076
g2
((lp1077
V1206
p1078
ag1076
atp1079
Rp1080
sV1697
p1081
g2
((lp1082
V1696
p1083
ag1081
aV1703
p1084
aV1698
p1085
atp1086
Rp1087
sV1694
p1088
g2
((lp1089
g1088
aV1695
p1090
atp1091
Rp1092
sV1692
p1093
g2
((lp1094
V1700
p1095
ag1093
aV1687
p1096
atp1097
Rp1098
sV1690
p1099
g2
((lp1100
V1693
p1101
ag1099
atp1102
Rp1103
sV1757
p1104
g2
((lp1105
g1104
aV1758
p1106
atp1107
Rp1108
sV1753
p1109
g2
((lp1110
V1755
p1111
aV1754
p1112
ag1109
aV1752
p1113
aV1749
p1114
atp1115
Rp1116
sV1699
p1117
g2
((lp1118
g1117
atp1119
Rp1120
sV146
p1121
g2
((lp1122
g1121
aV151
p1123
aV150
p1124
atp1125
Rp1126
sV147
p1127
g2
((lp1128
g1127
aV155
p1129
aV154
p1130
aV148
p1131
aV149
p1132
atp1133
Rp1134
sV618
p1135
g2
((lp1136
V506
p1137
ag1135
aV627
p1138
atp1139
Rp1140
sV1174
p1141
g2
((lp1142
g1141
atp1143
Rp1144
sV143
p1145
g2
((lp1146
V138
p1147
aV144
p1148
aV145
p1149
ag1145
aV140
p1150
atp1151
Rp1152
sV1272
p1153
g2
((lp1154
V1271
p1155
ag1153
aV1275
p1156
atp1157
Rp1158
sV1273
p1159
g2
((lp1160
g1159
atp1161
Rp1162
sV1274
p1163
g2
((lp1164
V1143
p1165
ag1163
aV1144
p1166
atp1167
Rp1168
sV617
p1169
g2
((lp1170
g1169
atp1171
Rp1172
sV1179
p1173
g2
((lp1174
V1177
p1175
ag1173
atp1176
Rp1177
sV1178
p1178
g2
((lp1179
V1176
p1180
ag1178
atp1181
Rp1182
sV1430
p1183
g2
((lp1184
V1399
p1185
ag1183
aV1433
p1186
atp1187
Rp1188
sV1889
p1189
g2
((lp1190
V1890
p1191
ag1189
atp1192
Rp1193
sV1887
p1194
g2
((lp1195
g1194
aV1886
p1196
aV1891
p1197
aV1888
p1198
atp1199
Rp1200
sV1885
p1201
g2
((lp1202
g1201
aV408
p1203
atp1204
Rp1205
sV1883
p1206
g2
((lp1207
V1872
p1208
aV1884
p1209
ag1206
aV1873
p1210
atp1211
Rp1212
sV1881
p1213
g2
((lp1214
g1213
atp1215
Rp1216
sV1880
p1217
g2
((lp1218
V1882
p1219
ag1217
atp1220
Rp1221
sV2121
p1222
g2
((lp1223
g1222
aV2122
p1224
aV2116
p1225
atp1226
Rp1227
sV2120
p1228
g2
((lp1229
g1228
aV2394
p1230
aV2119
p1231
atp1232
Rp1233
sV2123
p1234
g2
((lp1235
V2103
p1236
ag1234
atp1237
Rp1238
sV1004
p1239
g2
((lp1240
g1239
aV999
p1241
atp1242
Rp1243
sV878
p1244
g2
((lp1245
V877
p1246
ag1244
atp1247
Rp1248
sV1283
p1249
g2
((lp1250
V1285
p1251
aV1284
p1252
aV1281
p1253
ag1249
aV1282
p1254
atp1255
Rp1256
sV2126
p1257
g2
((lp1258
V2082
p1259
aV2127
p1260
ag1257
atp1261
Rp1262
sV2129
p1263
g2
((lp1264
g1263
aV2130
p1265
aV2131
p1266
atp1267
Rp1268
sV944
p1269
g2
((lp1270
V947
p1271
ag1269
aV948
p1272
atp1273
Rp1274
sV2081
p1275
g2
((lp1276
V2083
p1277
ag1275
aV2087
p1278
aV2084
p1279
atp1280
Rp1281
sV2086
p1282
g2
((lp1283
V2088
p1284
ag1282
atp1285
Rp1286
sV1288
p1287
g2
((lp1288
g1287
atp1289
Rp1290
sV2085
p1291
g2
((lp1292
V2239
p1293
aV2091
p1294
ag1291
atp1295
Rp1296
sV1471
p1297
g2
((lp1298
V1472
p1299
aV1470
p1300
ag1297
atp1301
Rp1302
sV1477
p1303
g2
((lp1304
V1478
p1305
ag1303
atp1306
Rp1307
sV1475
p1308
g2
((lp1309
V1476
p1310
ag1308
atp1311
Rp1312
sV686
p1313
g2
((lp1314
V685
p1315
aV687
p1316
ag1313
atp1317
Rp1318
sV681
p1319
g2
((lp1320
V684
p1321
aV629
p1322
ag1319
atp1323
Rp1324
sV1576
p1325
g2
((lp1326
g1325
aV1575
p1327
aV1574
p1328
atp1329
Rp1330
sV2534
p1331
g2
((lp1332
g1331
atp1333
Rp1334
sV2535
p1335
g2
((lp1336
g1335
atp1337
Rp1338
sV1192
p1339
g2
((lp1340
V1193
p1341
ag1339
aV1171
p1342
aV1170
p1343
atp1344
Rp1345
sV1300
p1346
g2
((lp1347
V1375
p1348
ag1346
aV1294
p1349
atp1350
Rp1351
sV1303
p1352
g2
((lp1353
V1304
p1354
ag1352
atp1355
Rp1356
sV2349
p1357
g2
((lp1358
g1357
atp1359
Rp1360
sV1308
p1361
g2
((lp1362
V1299
p1363
ag1361
atp1364
Rp1365
sV1309
p1366
g2
((lp1367
g1366
atp1368
Rp1369
sV2348
p1370
g2
((lp1371
V2347
p1372
aV2346
p1373
ag1370
aV2048
p1374
atp1375
Rp1376
sV130
p1377
g2
((lp1378
g1377
atp1379
Rp1380
sV499
p1381
g2
((lp1382
V502
p1383
ag1381
aV162
p1384
atp1385
Rp1386
sV135
p1387
g2
((lp1388
V137
p1389
aV136
p1390
ag1387
atp1391
Rp1392
sV134
p1393
g2
((lp1394
V133
p1395
aV132
p1396
aV131
p1397
ag1393
atp1398
Rp1399
sV495
p1400
g2
((lp1401
V494
p1402
ag1400
aV500
p1403
atp1404
Rp1405
sV139
p1406
g2
((lp1407
g1406
aV142
p1408
aV141
p1409
atp1410
Rp1411
sV2221
p1412
g2
((lp1413
g1412
atp1414
Rp1415
sV490
p1416
g2
((lp1417
V860
p1418
ag1416
aV859
p1419
aV489
p1420
aV491
p1421
atp1422
Rp1423
sV492
p1424
g2
((lp1425
V496
p1426
aV497
p1427
aV498
p1428
ag1424
aV493
p1429
atp1430
Rp1431
sV2591
p1432
g2
((lp1433
V2604
p1434
aV2594
p1435
ag1432
atp1436
Rp1437
sV1831
p1438
g2
((lp1439
g1438
atp1440
Rp1441
sV22
p1442
g2
((lp1443
V20
p1444
aV21
p1445
ag1442
atp1446
Rp1447
sV1835
p1448
g2
((lp1449
g1448
atp1450
Rp1451
sV284
p1452
g2
((lp1453
V379
p1454
aV283
p1455
ag1452
atp1456
Rp1457
sV2564
p1458
g2
((lp1459
g1458
aV2453
p1460
atp1461
Rp1462
sV29
p1463
g2
((lp1464
V30
p1465
aV1152
p1466
aV42
p1467
ag1463
aV1150
p1468
atp1469
Rp1470
sV1371
p1471
g2
((lp1472
g1471
aV1287
p1473
aV1372
p1474
atp1475
Rp1476
sV2407
p1477
g2
((lp1478
g1477
aV2408
p1479
aV2409
p1480
atp1481
Rp1482
sV2156
p1483
g2
((lp1484
V2154
p1485
ag1483
aV2158
p1486
atp1487
Rp1488
sV404
p1489
g2
((lp1490
V406
p1491
aV442
p1492
ag1489
aV403
p1493
aV435
p1494
atp1495
Rp1496
sV2402
p1497
g2
((lp1498
V2404
p1499
aV2405
p1500
ag1497
aV2393
p1501
aV2400
p1502
atp1503
Rp1504
sV1374
p1505
g2
((lp1506
V1373
p1507
ag1505
aV1382
p1508
atp1509
Rp1510
sV2152
p1511
g2
((lp1512
V2277
p1513
aV2276
p1514
aV2150
p1515
ag1511
atp1516
Rp1517
sV1376
p1518
g2
((lp1519
V1379
p1520
aV1378
p1521
ag1518
atp1522
Rp1523
sV932
p1524
g2
((lp1525
g1524
atp1526
Rp1527
sV2017
p1528
g2
((lp1529
V478
p1530
ag1528
aV2016
p1531
aV2018
p1532
aV488
p1533
atp1534
Rp1535
sV2011
p1536
g2
((lp1537
V2059
p1538
aV2014
p1539
ag1536
aV2060
p1540
atp1541
Rp1542
sV2159
p1543
g2
((lp1544
V2157
p1545
ag1543
atp1546
Rp1547
sV2013
p1548
g2
((lp1549
g1548
atp1550
Rp1551
sV934
p1552
g2
((lp1553
V933
p1554
ag1552
atp1555
Rp1556
sV1343
p1557
g2
((lp1558
V1342
p1559
ag1557
aV1458
p1560
atp1561
Rp1562
sV1079
p1563
g2
((lp1564
V1119
p1565
aV1126
p1566
ag1563
atp1567
Rp1568
sV2599
p1569
g2
((lp1570
V2600
p1571
ag1569
atp1572
Rp1573
sV1955
p1574
g2
((lp1575
g1574
aV1956
p1576
aV1949
p1577
aV1972
p1578
atp1579
Rp1580
sV1954
p1581
g2
((lp1582
g1581
atp1583
Rp1584
sV1950
p1585
g2
((lp1586
V1940
p1587
aV1957
p1588
aV1951
p1589
ag1585
aV1953
p1590
aV1952
p1591
atp1592
Rp1593
sV1347
p1594
g2
((lp1595
V1350
p1596
ag1594
atp1597
Rp1598
sV1705
p1599
g2
((lp1600
V1704
p1601
ag1599
atp1602
Rp1603
sV1060
p1604
g2
((lp1605
V1069
p1606
ag1604
atp1607
Rp1608
sV824
p1609
g2
((lp1610
V825
p1611
ag1609
atp1612
Rp1613
sV826
p1614
g2
((lp1615
V827
p1616
ag1614
aV828
p1617
atp1618
Rp1619
sV820
p1620
g2
((lp1621
V818
p1622
aV819
p1623
ag1620
atp1624
Rp1625
sV376
p1626
g2
((lp1627
V377
p1628
ag1626
atp1629
Rp1630
sV1278
p1631
g2
((lp1632
g1631
aV1277
p1633
atp1634
Rp1635
sV1244
p1636
g2
((lp1637
V1243
p1638
ag1636
atp1639
Rp1640
sV708
p1641
g2
((lp1642
g1641
aV710
p1643
atp1644
Rp1645
sV1279
p1646
g2
((lp1647
g1646
aV1286
p1648
aV1289
p1649
atp1650
Rp1651
sV704
p1652
g2
((lp1653
g1652
atp1654
Rp1655
sV706
p1656
g2
((lp1657
V705
p1658
ag1656
aV707
p1659
aV712
p1660
aV711
p1661
atp1662
Rp1663
sV702
p1664
g2
((lp1665
V742
p1666
ag1664
atp1667
Rp1668
sV703
p1669
g2
((lp1670
V683
p1671
ag1669
atp1672
Rp1673
sV391
p1674
g2
((lp1675
V393
p1676
aV392
p1677
ag1674
atp1678
Rp1679
sV619
p1680
g2
((lp1681
V621
p1682
ag1680
aV624
p1683
atp1684
Rp1685
sV396
p1686
g2
((lp1687
V397
p1688
ag1686
atp1689
Rp1690
sV1484
p1691
g2
((lp1692
V1483
p1693
aV1492
p1694
aV1494
p1695
ag1691
atp1696
Rp1697
sV398
p1698
g2
((lp1699
g1698
atp1700
Rp1701
sV84
p1702
g2
((lp1703
V82
p1704
aV83
p1705
ag1702
atp1706
Rp1707
sV1172
p1708
g2
((lp1709
V1151
p1710
aV1173
p1711
ag1708
atp1712
Rp1713
sV1713
p1714
g2
((lp1715
g1714
atp1716
Rp1717
sV1711
p1718
g2
((lp1719
g1718
aV1750
p1720
atp1721
Rp1722
sV1710
p1723
g2
((lp1724
V1756
p1725
ag1723
aV1707
p1726
atp1727
Rp1728
sV1717
p1729
g2
((lp1730
g1729
atp1731
Rp1732
sV792
p1733
g2
((lp1734
V777
p1735
aV795
p1736
aV793
p1737
ag1733
aV790
p1738
atp1739
Rp1740
sV791
p1741
g2
((lp1742
g1741
atp1743
Rp1744
sV1714
p1745
g2
((lp1746
V1712
p1747
aV1724
p1748
aV1715
p1749
ag1745
atp1750
Rp1751
sV1507
p1752
g2
((lp1753
g1752
atp1754
Rp1755
sV1719
p1756
g2
((lp1757
V1728
p1758
ag1756
aV1767
p1759
aV1751
p1760
atp1761
Rp1762
sV1718
p1763
g2
((lp1764
g1763
aV1716
p1765
atp1766
Rp1767
sV2145
p1768
g2
((lp1769
V2146
p1770
ag1768
aV2416
p1771
atp1772
Rp1773
sV799
p1774
g2
((lp1775
V805
p1776
aV1102
p1777
aV806
p1778
ag1774
atp1779
Rp1780
sV798
p1781
g2
((lp1782
g1781
atp1783
Rp1784
sV1658
p1785
g2
((lp1786
g1785
atp1787
Rp1788
sV1659
p1789
g2
((lp1790
V1665
p1791
ag1789
aV1660
p1792
atp1793
Rp1794
sV1878
p1795
g2
((lp1796
V399
p1797
ag1795
aV1879
p1798
atp1799
Rp1800
sV1653
p1801
g2
((lp1802
V1652
p1803
ag1801
aV1663
p1804
aV1668
p1805
atp1806
Rp1807
sV1654
p1808
g2
((lp1809
V1650
p1810
aV1651
p1811
ag1808
atp1812
Rp1813
sV411
p1814
g2
((lp1815
g1814
atp1816
Rp1817
sV2288
p1818
g2
((lp1819
g1818
atp1820
Rp1821
sV583
p1822
g2
((lp1823
V584
p1824
aV585
p1825
aV582
p1826
ag1822
aV581
p1827
atp1828
Rp1829
sV1987
p1830
g2
((lp1831
V1991
p1832
ag1830
atp1833
Rp1834
sV616
p1835
g2
((lp1836
V1160
p1837
ag1835
aV615
p1838
atp1839
Rp1840
sV1130
p1841
g2
((lp1842
g1841
atp1843
Rp1844
sV1137
p1845
g2
((lp1846
V1139
p1847
ag1845
aV1131
p1848
aV1135
p1849
atp1850
Rp1851
sV1136
p1852
g2
((lp1853
V1142
p1854
aV1141
p1855
ag1852
atp1856
Rp1857
sV2286
p1858
g2
((lp1859
V2314
p1860
ag1858
atp1861
Rp1862
sV1134
p1863
g2
((lp1864
V1133
p1865
aV1132
p1866
ag1863
atp1867
Rp1868
sV1667
p1869
g2
((lp1870
g1869
aV1859
p1871
aV1672
p1872
atp1873
Rp1874
sV240
p1875
g2
((lp1876
V245
p1877
aV247
p1878
aV246
p1879
ag1875
atp1880
Rp1881
sV242
p1882
g2
((lp1883
V244
p1884
aV243
p1885
ag1882
atp1886
Rp1887
sV1982
p1888
g2
((lp1889
V1986
p1890
aV1990
p1891
ag1888
aV1983
p1892
aV445
p1893
atp1894
Rp1895
sV1311
p1896
g2
((lp1897
V1020
p1898
ag1896
aV1019
p1899
atp1900
Rp1901
sV248
p1902
g2
((lp1903
g1902
atp1904
Rp1905
sV1439
p1906
g2
((lp1907
V1493
p1908
ag1906
atp1909
Rp1910
sV923
p1911
g2
((lp1912
V930
p1913
aV922
p1914
ag1911
aV935
p1915
atp1916
Rp1917
sV1445
p1918
g2
((lp1919
V1447
p1920
ag1918
atp1921
Rp1922
sV2270
p1923
g2
((lp1924
V2269
p1925
ag1923
aV2272
p1926
atp1927
Rp1928
sV2273
p1929
g2
((lp1930
V2274
p1931
aV2271
p1932
ag1929
atp1933
Rp1934
sV2577
p1935
g2
((lp1936
V2558
p1937
ag1935
aV2561
p1938
aV2559
p1939
atp1940
Rp1941
sV2575
p1942
g2
((lp1943
V2595
p1944
ag1942
atp1945
Rp1946
sV2279
p1947
g2
((lp1948
V2275
p1949
aV2280
p1950
ag1947
atp1951
Rp1952
sV2278
p1953
g2
((lp1954
g1953
atp1955
Rp1956
sV419
p1957
g2
((lp1958
V421
p1959
ag1957
atp1960
Rp1961
sV519
p1962
g2
((lp1963
g1962
aV520
p1964
atp1965
Rp1966
sV2379
p1967
g2
((lp1968
g1967
atp1969
Rp1970
sV1008
p1971
g2
((lp1972
g1971
atp1973
Rp1974
sV511
p1975
g2
((lp1976
g1975
aV513
p1977
aV512
p1978
atp1979
Rp1980
sV1006
p1981
g2
((lp1982
V1007
p1983
ag1981
atp1984
Rp1985
sV2376
p1986
g2
((lp1987
V2375
p1988
ag1986
aV2377
p1989
aV2378
p1990
aV2359
p1991
atp1992
Rp1993
sV2148
p1994
g2
((lp1995
V2147
p1996
ag1994
atp1997
Rp1998
sV1001
p1999
g2
((lp2000
V1305
p2001
aV952
p2002
aV1009
p2003
ag1999
atp2004
Rp2005
sV1000
p2006
g2
((lp2007
V1729
p2008
aV665
p2009
aV664
p2010
aV72
p2011
aV32
p2012
aV2543
p2013
aV25
p2014
aV2527
p2015
aV2526
p2016
aV2326
p2017
aV2325
p2018
aV2544
p2019
aV46
p2020
aV1730
p2021
aV40
p2022
aV41
p2023
aV3
p2024
aV4
p2025
aV425
p2026
aV424
p2027
aV24
p2028
aV1314
p2029
aV1313
p2030
aV26
p2031
aV2251
p2032
aV121
p2033
aV122
p2034
aV2540
p2035
aV168
p2036
aV169
p2037
aV47
p2038
aV164
p2039
aV165
p2040
aV2250
p2041
aV95
p2042
aV94
p2043
aV39
p2044
aV38
p2045
aV23
p2046
aV17
p2047
aV16
p2048
aV55
p2049
aV54
p2050
aV57
p2051
aV56
p2052
aV37
p2053
aV36
p2054
aV53
p2055
aV52
p2056
aV19
p2057
aV2539
p2058
aV353
p2059
aV352
p2060
aV18
p2061
aV73
p2062
aV1538
p2063
aV1003
p2064
aV31
p2065
aV1539
p2066
ag2006
atp2067
Rp2068
sV623
p2069
g2
((lp2070
g2069
atp2071
Rp2072
sV2596
p2073
g2
((lp2074
g2073
aV2598
p2075
atp2076
Rp2077
sV2597
p2078
g2
((lp2079
V2605
p2080
ag2078
atp2081
Rp2082
sV1223
p2083
g2
((lp2084
V1224
p2085
ag2083
atp2086
Rp2087
sV626
p2088
g2
((lp2089
V510
p2090
ag2088
atp2091
Rp2092
sV125
p2093
g2
((lp2094
V129
p2095
ag2093
atp2096
Rp2097
sV2593
p2098
g2
((lp2099
g2098
atp2100
Rp2101
sV2455
p2102
g2
((lp2103
g2102
aV2456
p2104
aV2441
p2105
atp2106
Rp2107
sV1341
p2108
g2
((lp2109
g2108
aV1345
p2110
atp2111
Rp2112
sV628
p2113
g2
((lp2114
g2113
atp2115
Rp2116
sV2451
p2117
g2
((lp2118
V2446
p2119
ag2117
aV2447
p2120
aV2452
p2121
atp2122
Rp2123
sV2450
p2124
g2
((lp2125
g2124
atp2126
Rp2127
sV1229
p2128
g2
((lp2129
V1237
p2130
ag2128
atp2131
Rp2132
sV1228
p2133
g2
((lp2134
g2133
atp2135
Rp2136
sV1877
p2137
g2
((lp2138
V1876
p2139
ag2137
aV1917
p2140
aV1908
p2141
aV1909
p2142
atp2143
Rp2144
sV1875
p2145
g2
((lp2146
g2145
atp2147
Rp2148
sV1989
p2149
g2
((lp2150
V1984
p2151
aV1988
p2152
ag2149
atp2153
Rp2154
sV173
p2155
g2
((lp2156
V174
p2157
ag2155
atp2158
Rp2159
sV171
p2160
g2
((lp2161
V178
p2162
aV177
p2163
aV166
p2164
aV172
p2165
ag2160
aV170
p2166
atp2167
Rp2168
sV976
p2169
g2
((lp2170
g2169
atp2171
Rp2172
sV2053
p2173
g2
((lp2174
g2173
aV2054
p2175
aV2056
p2176
atp2177
Rp2178
sV2052
p2179
g2
((lp2180
V2051
p2181
ag2179
atp2182
Rp2183
sV973
p2184
g2
((lp2185
V974
p2186
ag2184
atp2187
Rp2188
sV1366
p2189
g2
((lp2190
g2189
aV1367
p2191
aV1364
p2192
aV1365
p2193
atp2194
Rp2195
sV2057
p2196
g2
((lp2197
V2050
p2198
ag2196
atp2199
Rp2200
sV970
p2201
g2
((lp2202
V992
p2203
aV972
p2204
aV971
p2205
ag2201
atp2206
Rp2207
sV2058
p2208
g2
((lp2209
g2208
atp2210
Rp2211
sV596
p2212
g2
((lp2213
g2212
atp2214
Rp2215
sV2118
p2216
g2
((lp2217
g2216
aV2113
p2218
aV2392
p2219
atp2220
Rp2221
sV657
p2222
g2
((lp2223
g2222
atp2224
Rp2225
sV1500
p2226
g2
((lp2227
V1498
p2228
aV1499
p2229
ag2226
atp2230
Rp2231
sV181
p2232
g2
((lp2233
V182
p2234
ag2232
aV202
p2235
atp2236
Rp2237
sV186
p2238
g2
((lp2239
V180
p2240
ag2238
aV179
p2241
atp2242
Rp2243
sV187
p2244
g2
((lp2245
g2244
atp2246
Rp2247
sV184
p2248
g2
((lp2249
V215
p2250
ag2248
atp2251
Rp2252
sV185
p2253
g2
((lp2254
V183
p2255
ag2253
atp2256
Rp2257
sV2112
p2258
g2
((lp2259
g2258
atp2260
Rp2261
sV189
p2262
g2
((lp2263
V188
p2264
ag2262
aV190
p2265
atp2266
Rp2267
sV658
p2268
g2
((lp2269
V653
p2270
ag2268
atp2271
Rp2272
sV2117
p2273
g2
((lp2274
g2273
atp2275
Rp2276
sV196
p2277
g2
((lp2278
V295
p2279
aV197
p2280
ag2277
aV205
p2281
aV206
p2282
atp2283
Rp2284
sV191
p2285
g2
((lp2286
V176
p2287
ag2285
aV192
p2288
atp2289
Rp2290
sV1505
p2291
g2
((lp2292
V1506
p2293
aV1504
p2294
ag2291
atp2295
Rp2296
sV1918
p2297
g2
((lp2298
g2297
atp2299
Rp2300
sV1911
p2301
g2
((lp2302
g2301
aV1906
p2303
aV1912
p2304
atp2305
Rp2306
sV314
p2307
g2
((lp2308
V316
p2309
aV315
p2310
ag2307
atp2311
Rp2312
sV1914
p2313
g2
((lp2314
V1919
p2315
ag2313
atp2316
Rp2317
sV1916
p2318
g2
((lp2319
V1920
p2320
aV1913
p2321
aV1915
p2322
aV1958
p2323
ag2318
atp2324
Rp2325
sV868
p2326
g2
((lp2327
V869
p2328
ag2326
aV867
p2329
aV866
p2330
atp2331
Rp2332
sV13
p2333
g2
((lp2334
g2333
aV2
p2335
atp2336
Rp2337
sV12
p2338
g2
((lp2339
V1
p2340
ag2338
atp2341
Rp2342
sV861
p2343
g2
((lp2344
g2343
aV876
p2345
atp2346
Rp2347
sV862
p2348
g2
((lp2349
V857
p2350
aV863
p2351
ag2348
aV865
p2352
atp2353
Rp2354
sV864
p2355
g2
((lp2356
g2355
atp2357
Rp2358
sV477
p2359
g2
((lp2360
V453
p2361
aV448
p2362
ag2359
atp2363
Rp2364
sV2025
p2365
g2
((lp2366
V2024
p2367
ag2365
atp2368
Rp2369
sV2020
p2370
g2
((lp2371
g2370
atp2372
Rp2373
sV659
p2374
g2
((lp2375
V372
p2376
ag2374
atp2377
Rp2378
sV2028
p2379
g2
((lp2380
V2027
p2381
ag2379
atp2382
Rp2383
sV2029
p2384
g2
((lp2385
g2384
atp2386
Rp2387
sV1502
p2388
g2
((lp2389
g2388
atp2390
Rp2391
sV881
p2392
g2
((lp2393
V882
p2394
ag2392
aV887
p2395
atp2396
Rp2397
sV880
p2398
g2
((lp2399
V883
p2400
ag2398
aV884
p2401
atp2402
Rp2403
sV886
p2404
g2
((lp2405
g2404
atp2406
Rp2407
sV885
p2408
g2
((lp2409
g2408
atp2410
Rp2411
sV1646
p2412
g2
((lp2413
g2412
atp2414
Rp2415
sV2256
p2416
g2
((lp2417
g2416
aV2264
p2418
atp2419
Rp2420
sV943
p2421
g2
((lp2422
V953
p2423
aV1230
p2424
ag2421
aV954
p2425
atp2426
Rp2427
sV2578
p2428
g2
((lp2429
V2530
p2430
aV2529
p2431
ag2428
atp2432
Rp2433
sV1970
p2434
g2
((lp2435
V1973
p2436
aV1971
p2437
ag2434
atp2438
Rp2439
sV2177
p2440
g2
((lp2441
V2178
p2442
ag2440
atp2443
Rp2444
sV1969
p2445
g2
((lp2446
g2445
atp2447
Rp2448
sV1619
p2449
g2
((lp2450
V1622
p2451
aV1618
p2452
ag2449
atp2453
Rp2454
sV1965
p2455
g2
((lp2456
g2455
aV1874
p2457
aV1959
p2458
atp2459
Rp2460
sV1614
p2461
g2
((lp2462
g2461
aV1615
p2463
aV1613
p2464
atp2465
Rp2466
sV1967
p2467
g2
((lp2468
V1966
p2469
ag2467
aV1974
p2470
atp2471
Rp2472
sV1510
p2473
g2
((lp2474
V1509
p2475
ag2473
atp2476
Rp2477
sV1962
p2478
g2
((lp2479
V1946
p2480
aV1960
p2481
aV1961
p2482
ag2478
atp2483
Rp2484
sV1963
p2485
g2
((lp2486
g2485
atp2487
Rp2488
sV322
p2489
g2
((lp2490
g2489
aV323
p2491
atp2492
Rp2493
sV320
p2494
g2
((lp2495
g2494
aV343
p2496
atp2497
Rp2498
sV321
p2499
g2
((lp2500
g2499
aV317
p2501
atp2502
Rp2503
sV324
p2504
g2
((lp2505
V304
p2506
ag2504
aV325
p2507
atp2508
Rp2509
sV329
p2510
g2
((lp2511
V328
p2512
ag2510
aV327
p2513
atp2514
Rp2515
sV774
p2516
g2
((lp2517
g2516
atp2518
Rp2519
sV776
p2520
g2
((lp2521
V775
p2522
ag2520
atp2523
Rp2524
sV204
p2525
g2
((lp2526
V253
p2527
ag2525
aV254
p2528
atp2529
Rp2530
sV773
p2531
g2
((lp2532
V771
p2533
aV780
p2534
ag2531
atp2535
Rp2536
sV209
p2537
g2
((lp2538
g2537
atp2539
Rp2540
sV208
p2541
g2
((lp2542
g2541
aV203
p2543
atp2544
Rp2545
sV350
p2546
g2
((lp2547
V354
p2548
aV348
p2549
aV351
p2550
ag2546
atp2551
Rp2552
sV778
p2553
g2
((lp2554
V796
p2555
ag2553
atp2556
Rp2557
sV75
p2558
g2
((lp2559
g2558
aV2457
p2560
atp2561
Rp2562
sV74
p2563
g2
((lp2564
V76
p2565
ag2563
aV2458
p2566
atp2567
Rp2568
sV71
p2569
g2
((lp2570
V61
p2571
aV2160
p2572
ag2569
atp2573
Rp2574
sV70
p2575
g2
((lp2576
V2161
p2577
ag2575
atp2578
Rp2579
sV1501
p2580
g2
((lp2581
g2580
aV1528
p2582
aV1527
p2583
aV1522
p2584
atp2585
Rp2586
sV112
p2587
g2
((lp2588
g2587
atp2589
Rp2590
sV78
p2591
g2
((lp2592
V77
p2593
aV80
p2594
aV81
p2595
aV79
p2596
ag2591
atp2597
Rp2598
sV1664
p2599
g2
((lp2600
V1666
p2601
ag2599
aV1662
p2602
atp2603
Rp2604
sV1479
p2605
g2
((lp2606
V1482
p2607
ag2605
atp2608
Rp2609
sV1046
p2610
g2
((lp2611
V1043
p2612
aV1042
p2613
ag2610
aV1064
p2614
aV1066
p2615
aV1071
p2616
atp2617
Rp2618
sV949
p2619
g2
((lp2620
g2619
atp2621
Rp2622
sV2536
p2623
g2
((lp2624
V2533
p2625
ag2623
aV2537
p2626
atp2627
Rp2628
sV1049
p2629
g2
((lp2630
g2629
atp2631
Rp2632
sV1048
p2633
g2
((lp2634
g2633
aV1045
p2635
aV1044
p2636
atp2637
Rp2638
sV1291
p2639
g2
((lp2640
V1292
p2641
aV1293
p2642
ag2639
atp2643
Rp2644
sV2067
p2645
g2
((lp2646
g2645
atp2647
Rp2648
sV2236
p2649
g2
((lp2650
g2649
atp2651
Rp2652
sV1683
p2653
g2
((lp2654
V1681
p2655
aV1680
p2656
ag2653
atp2657
Rp2658
sV1684
p2659
g2
((lp2660
V1685
p2661
ag2659
aV1691
p2662
atp2663
Rp2664
sV1686
p2665
g2
((lp2666
V1682
p2667
ag2665
atp2668
Rp2669
sV1762
p2670
g2
((lp2671
g2670
aV1768
p2672
aV1769
p2673
aV1766
p2674
atp2675
Rp2676
sV1688
p2677
g2
((lp2678
g2677
aV1584
p2679
atp2680
Rp2681
sV1760
p2682
g2
((lp2683
g2682
aV1761
p2684
aV1759
p2685
atp2686
Rp2687
sV1764
p2688
g2
((lp2689
V1763
p2690
ag2688
atp2691
Rp2692
sV1590
p2693
g2
((lp2694
V1589
p2695
ag2693
atp2696
Rp2697
sV1269
p2698
g2
((lp2699
g2698
aV1268
p2700
aV1267
p2701
atp2702
Rp2703
sV229
p2704
g2
((lp2705
V256
p2706
ag2704
atp2707
Rp2708
sV667
p2709
g2
((lp2710
g2709
aV750
p2711
aV668
p2712
atp2713
Rp2714
sV1262
p2715
g2
((lp2716
V1263
p2717
ag2715
aV1261
p2718
atp2719
Rp2720
sV1148
p2721
g2
((lp2722
V8
p2723
ag2721
aV1146
p2724
aV7
p2725
aV1145
p2726
atp2727
Rp2728
sV1592
p2729
g2
((lp2730
V1595
p2731
aV1594
p2732
aV1593
p2733
ag2729
atp2734
Rp2735
sV662
p2736
g2
((lp2737
V373
p2738
ag2736
atp2739
Rp2740
sV1265
p2741
g2
((lp2742
V1270
p2743
ag2741
atp2744
Rp2745
sV1264
p2746
g2
((lp2747
V1138
p2748
ag2746
atp2749
Rp2750
sV2096
p2751
g2
((lp2752
V2095
p2753
aV2094
p2754
ag2751
atp2755
Rp2756
sV2090
p2757
g2
((lp2758
V2089
p2759
ag2757
atp2760
Rp2761
sV2098
p2762
g2
((lp2763
V2044
p2764
aV2097
p2765
aV2110
p2766
aV2100
p2767
aV2099
p2768
ag2762
atp2769
Rp2770
sV266
p2771
g2
((lp2772
V267
p2773
aV214
p2774
aV375
p2775
ag2771
aV374
p2776
atp2777
Rp2778
sV693
p2779
g2
((lp2780
g2779
atp2781
Rp2782
sV690
p2783
g2
((lp2784
g2783
atp2785
Rp2786
sV691
p2787
g2
((lp2788
g2787
atp2789
Rp2790
sV696
p2791
g2
((lp2792
V698
p2793
ag2791
aV697
p2794
atp2795
Rp2796
sV1543
p2797
g2
((lp2798
V1544
p2799
ag2797
atp2800
Rp2801
sV694
p2802
g2
((lp2803
V689
p2804
ag2802
atp2805
Rp2806
sV695
p2807
g2
((lp2808
V692
p2809
ag2807
atp2810
Rp2811
sV1404
p2812
g2
((lp2813
V1410
p2814
aV1405
p2815
ag2812
atp2816
Rp2817
sV1297
p2818
g2
((lp2819
V1306
p2820
ag2818
aV1298
p2821
atp2822
Rp2823
sV699
p2824
g2
((lp2825
g2824
aV700
p2826
aV688
p2827
atp2828
Rp2829
sV2482
p2830
g2
((lp2831
g2830
atp2832
Rp2833
sV2528
p2834
g2
((lp2835
V2532
p2836
aV2493
p2837
aV2531
p2838
ag2834
atp2839
Rp2840
sV1549
p2841
g2
((lp2842
V252
p2843
aV2315
p2844
ag2841
atp2845
Rp2846
sV543
p2847
g2
((lp2848
g2847
aV553
p2849
atp2850
Rp2851
sV541
p2852
g2
((lp2853
V540
p2854
ag2852
atp2855
Rp2856
sV546
p2857
g2
((lp2858
g2857
atp2859
Rp2860
sV547
p2861
g2
((lp2862
V551
p2863
ag2861
aV550
p2864
atp2865
Rp2866
sV763
p2867
g2
((lp2868
g2867
aV767
p2869
atp2870
Rp2871
sV2012
p2872
g2
((lp2873
g2872
atp2874
Rp2875
sV548
p2876
g2
((lp2877
g2876
aV544
p2878
aV545
p2879
atp2880
Rp2881
sV549
p2882
g2
((lp2883
V536
p2884
ag2882
aV682
p2885
atp2886
Rp2887
sV1460
p2888
g2
((lp2889
g2888
aV1448
p2890
atp2891
Rp2892
sV1463
p2893
g2
((lp2894
V1473
p2895
aV1474
p2896
ag2893
atp2897
Rp2898
sV1462
p2899
g2
((lp2900
V1461
p2901
ag2899
atp2902
Rp2903
sV2464
p2904
g2
((lp2905
g2904
atp2906
Rp2907
sV2465
p2908
g2
((lp2909
g2908
aV2466
p2910
atp2911
Rp2912
sV1315
p2913
g2
((lp2914
V1316
p2915
ag2913
aV1319
p2916
atp2917
Rp2918
sV996
p2919
g2
((lp2920
g2919
atp2921
Rp2922
sV991
p2923
g2
((lp2924
g2923
aV2369
p2925
aV2368
p2926
atp2927
Rp2928
sV1312
p2929
g2
((lp2930
g2929
aV1318
p2931
atp2932
Rp2933
sV2462
p2934
g2
((lp2935
V2460
p2936
ag2934
atp2937
Rp2938
sV1310
p2939
g2
((lp2940
g2939
atp2941
Rp2942
sV2386
p2943
g2
((lp2944
V2380
p2945
ag2943
atp2946
Rp2947
sV998
p2948
g2
((lp2949
V995
p2950
aV994
p2951
ag2948
atp2952
Rp2953
sV1429
p2954
g2
((lp2955
g2954
aV1432
p2956
atp2957
Rp2958
sV1026
p2959
g2
((lp2960
V1025
p2961
aV1027
p2962
ag2959
aV1023
p2963
atp2964
Rp2965
sV124
p2966
g2
((lp2967
V123
p2968
ag2966
atp2969
Rp2970
sV1786
p2971
g2
((lp2972
V1788
p2973
aV1789
p2974
ag2971
atp2975
Rp2976
sV577
p2977
g2
((lp2978
g2977
atp2979
Rp2980
sV2414
p2981
g2
((lp2982
V2428
p2983
aV2413
p2984
ag2981
atp2985
Rp2986
sV128
p2987
g2
((lp2988
g2987
aV126
p2989
aV127
p2990
atp2991
Rp2992
sV2366
p2993
g2
((lp2994
g2993
aV2365
p2995
atp2996
Rp2997
sV945
p2998
g2
((lp2999
V928
p3000
aV929
p3001
ag2998
aV946
p3002
atp3003
Rp3004
sV1400
p3005
g2
((lp3006
g3005
aV1451
p3007
atp3008
Rp3009
sV1829
p3010
g2
((lp3011
V1833
p3012
aV1830
p3013
ag3010
aV1834
p3014
atp3015
Rp3016
sV1827
p3017
g2
((lp3018
g3017
aV1816
p3019
atp3020
Rp3021
sV1826
p3022
g2
((lp3023
g3022
atp3024
Rp3025
sV1823
p3026
g2
((lp3027
V1832
p3028
ag3026
atp3029
Rp3030
sV1822
p3031
g2
((lp3032
V1821
p3033
aV1820
p3034
ag3031
atp3035
Rp3036
sV2411
p3037
g2
((lp3038
g3037
aV2421
p3039
aV2412
p3040
atp3041
Rp3042
sV2410
p3043
g2
((lp3044
g3043
aV2399
p3045
atp3046
Rp3047
sV416
p3048
g2
((lp3049
V415
p3050
ag3048
atp3051
Rp3052
sV410
p3053
g2
((lp3054
g3053
aV409
p3055
atp3056
Rp3057
sV2142
p3058
g2
((lp3059
g3058
aV2141
p3060
atp3061
Rp3062
sV2140
p3063
g2
((lp3064
g3063
atp3065
Rp3066
sV2419
p3067
g2
((lp3068
g3067
aV2420
p3069
aV2417
p3070
atp3071
Rp3072
sV921
p3073
g2
((lp3074
V810
p3075
ag3073
aV809
p3076
aV931
p3077
aV811
p3078
atp3079
Rp3080
sV1387
p3081
g2
((lp3082
g3081
aV1380
p3083
atp3084
Rp3085
sV2064
p3086
g2
((lp3087
g3086
atp3088
Rp3089
sV925
p3090
g2
((lp3091
V924
p3092
ag3090
aV926
p3093
atp3094
Rp3095
sV2149
p3096
g2
((lp3097
V2422
p3098
aV2423
p3099
ag3096
atp3100
Rp3101
sV1383
p3102
g2
((lp3103
g3102
atp3104
Rp3105
sV1346
p3106
g2
((lp3107
V1344
p3108
aV1459
p3109
ag3106
atp3110
Rp3111
sV313
p3112
g2
((lp3113
g3112
aV319
p3114
aV318
p3115
atp3116
Rp3117
sV1740
p3118
g2
((lp3119
g3118
atp3120
Rp3121
sV1388
p3122
g2
((lp3123
g3122
aV1392
p3124
atp3125
Rp3126
sV310
p3127
g2
((lp3128
V312
p3129
aV311
p3130
ag3127
atp3131
Rp3132
sV1028
p3133
g2
((lp3134
V1015
p3135
ag3133
atp3136
Rp3137
sV1921
p3138
g2
((lp3139
g3138
aV1922
p3140
atp3141
Rp3142
sV1923
p3143
g2
((lp3144
V1964
p3145
ag3143
aV1944
p3146
atp3147
Rp3148
sV1649
p3149
g2
((lp3150
V1645
p3151
ag3149
atp3152
Rp3153
sV1929
p3154
g2
((lp3155
g3154
atp3156
Rp3157
sV1181
p3158
g2
((lp3159
V1353
p3160
aV1220
p3161
aV1183
p3162
ag3158
atp3163
Rp3164
sV1167
p3165
g2
((lp3166
V1165
p3167
aV1166
p3168
ag3165
atp3169
Rp3170
sV2571
p3171
g2
((lp3172
V2576
p3173
aV2570
p3174
ag3171
atp3175
Rp3176
sV831
p3177
g2
((lp3178
V836
p3179
ag3177
aV821
p3180
atp3181
Rp3182
sV835
p3183
g2
((lp3184
g3183
atp3185
Rp3186
sV839
p3187
g2
((lp3188
g3187
aV823
p3189
aV822
p3190
atp3191
Rp3192
sV2403
p3193
g2
((lp3194
V2362
p3195
ag3193
aV2401
p3196
atp3197
Rp3198
sV368
p3199
g2
((lp3200
V417
p3201
aV418
p3202
ag3199
atp3203
Rp3204
sV369
p3205
g2
((lp3206
V371
p3207
aV370
p3208
aV367
p3209
ag3205
atp3210
Rp3211
sV366
p3212
g2
((lp3213
g3212
atp3214
Rp3215
sV365
p3216
g2
((lp3217
V364
p3218
ag3216
aV654
p3219
atp3220
Rp3221
sV363
p3222
g2
((lp3223
V656
p3224
aV652
p3225
ag3222
aV651
p3226
atp3227
Rp3228
sV361
p3229
g2
((lp3230
g3229
atp3231
Rp3232
sV1336
p3233
g2
((lp3234
g3233
atp3235
Rp3236
sV2019
p3237
g2
((lp3238
g3237
atp3239
Rp3240
sV721
p3241
g2
((lp3242
V729
p3243
aV722
p3244
aV723
p3245
aV728
p3246
ag3241
atp3247
Rp3248
sV2321
p3249
g2
((lp3250
V2323
p3251
aV2322
p3252
ag3249
aV2324
p3253
atp3254
Rp3255
sV446
p3256
g2
((lp3257
V447
p3258
ag3256
atp3259
Rp3260
sV382
p3261
g2
((lp3262
V380
p3263
aV378
p3264
ag3261
aV383
p3265
aV381
p3266
atp3267
Rp3268
sV386
p3269
g2
((lp3270
g3269
aV387
p3271
atp3272
Rp3273
sV941
p3274
g2
((lp3275
V1227
p3276
ag3274
atp3277
Rp3278
sV388
p3279
g2
((lp3280
g3279
aV384
p3281
aV402
p3282
aV385
p3283
atp3284
Rp3285
sV389
p3286
g2
((lp3287
g3286
aV390
p3288
aV412
p3289
atp3290
Rp3291
sV1332
p3292
g2
((lp3293
V1333
p3294
ag3292
atp3295
Rp3296
sV1746
p3297
g2
((lp3298
g3297
aV1748
p3299
atp3300
Rp3301
sV1421
p3302
g2
((lp3303
g3302
atp3304
Rp3305
sV1644
p3306
g2
((lp3307
g3306
atp3308
Rp3309
sV2065
p3310
g2
((lp3311
V2068
p3312
aV2055
p3313
ag3310
atp3314
Rp3315
sV1078
p3316
g2
((lp3317
g3316
atp3318
Rp3319
sV782
p3320
g2
((lp3321
V787
p3322
ag3320
aV783
p3323
atp3324
Rp3325
sV1727
p3326
g2
((lp3327
g3326
atp3328
Rp3329
sV1725
p3330
g2
((lp3331
V1726
p3332
ag3330
atp3333
Rp3334
sV788
p3335
g2
((lp3336
g3335
atp3337
Rp3338
sV789
p3339
g2
((lp3340
V784
p3341
ag3339
aV781
p3342
atp3343
Rp3344
sV1721
p3345
g2
((lp3346
g3345
atp3347
Rp3348
sV1742
p3349
g2
((lp3350
V1744
p3351
aV1741
p3352
ag3349
aV1743
p3353
atp3354
Rp3355
sV2461
p3356
g2
((lp3357
g3356
aV2463
p3358
atp3359
Rp3360
sV2328
p3361
g2
((lp3362
V2332
p3363
ag3361
aV2333
p3364
atp3365
Rp3366
sV468
p3367
g2
((lp3368
V436
p3369
ag3367
atp3370
Rp3371
sV604
p3372
g2
((lp3373
g3372
aV606
p3374
atp3375
Rp3376
sV2292
p3377
g2
((lp3378
g3377
aV2320
p3379
aV2319
p3380
atp3381
Rp3382
sV2290
p3383
g2
((lp3384
V2293
p3385
aV2291
p3386
ag3383
atp3387
Rp3388
sV2297
p3389
g2
((lp3390
V2299
p3391
aV2298
p3392
aV2300
p3393
aV2282
p3394
ag3389
aV2295
p3395
atp3396
Rp3397
sV2296
p3398
g2
((lp3399
V2301
p3400
ag3398
atp3401
Rp3402
sV575
p3403
g2
((lp3404
V580
p3405
ag3403
atp3406
Rp3407
sV2294
p3408
g2
((lp3409
g3408
atp3410
Rp3411
sV2192
p3412
g2
((lp3413
V2200
p3414
aV2201
p3415
ag3412
atp3416
Rp3417
sV259
p3418
g2
((lp3419
g3418
atp3420
Rp3421
sV64
p3422
g2
((lp3423
g3422
aV65
p3424
atp3425
Rp3426
sV2195
p3427
g2
((lp3428
V2190
p3429
aV2191
p3430
ag3427
atp3431
Rp3432
sV66
p3433
g2
((lp3434
V59
p3435
aV58
p3436
ag3433
atp3437
Rp3438
sV2197
p3439
g2
((lp3440
g3439
atp3441
Rp3442
sV2198
p3443
g2
((lp3444
g3443
aV2203
p3445
aV2188
p3446
aV2204
p3447
atp3448
Rp3449
sV69
p3450
g2
((lp3451
g3450
atp3452
Rp3453
sV250
p3454
g2
((lp3455
g3454
aV101
p3456
atp3457
Rp3458
sV251
p3459
g2
((lp3460
V15
p3461
ag3459
aV273
p3462
aV14
p3463
atp3464
Rp3465
sV255
p3466
g2
((lp3467
V277
p3468
aV274
p3469
aV276
p3470
ag3466
atp3471
Rp3472
sV1848
p3473
g2
((lp3474
V63
p3475
aV62
p3476
ag3473
atp3477
Rp3478
sV2406
p3479
g2
((lp3480
g3479
atp3481
Rp3482
sV1588
p3483
g2
((lp3484
V1573
p3485
aV1572
p3486
ag3483
atp3487
Rp3488
sV1422
p3489
g2
((lp3490
V1423
p3491
ag3489
aV1424
p3492
atp3493
Rp3494
sV2205
p3495
g2
((lp3496
V2208
p3497
aV2211
p3498
ag3495
atp3499
Rp3500
sV2207
p3501
g2
((lp3502
V2189
p3503
aV2249
p3504
aV2206
p3505
ag3501
atp3506
Rp3507
sV1582
p3508
g2
((lp3509
g3508
atp3510
Rp3511
sV2560
p3512
g2
((lp3513
g3512
atp3514
Rp3515
sV1581
p3516
g2
((lp3517
V1571
p3518
ag3516
aV1580
p3519
atp3520
Rp3521
sV2565
p3522
g2
((lp3523
g3522
atp3524
Rp3525
sV405
p3526
g2
((lp3527
V407
p3528
ag3526
aV400
p3529
atp3530
Rp3531
sV2567
p3532
g2
((lp3533
g3532
atp3534
Rp3535
sV1585
p3536
g2
((lp3537
V1583
p3538
ag3536
atp3539
Rp3540
sV731
p3541
g2
((lp3542
g3541
atp3543
Rp3544
sV159
p3545
g2
((lp3546
g3545
aV160
p3547
atp3548
Rp3549
sV733
p3550
g2
((lp3551
g3550
aV1047
p3552
atp3553
Rp3554
sV938
p3555
g2
((lp3556
g3555
aV937
p3557
aV940
p3558
atp3559
Rp3560
sV735
p3561
g2
((lp3562
g3561
atp3563
Rp3564
sV734
p3565
g2
((lp3566
g3565
aV772
p3567
atp3568
Rp3569
sV158
p3570
g2
((lp3571
g3570
aV157
p3572
aV156
p3573
atp3574
Rp3575
sV2367
p3576
g2
((lp3577
g3576
aV889
p3578
atp3579
Rp3580
sV507
p3581
g2
((lp3582
g3581
aV515
p3583
aV514
p3584
aV518
p3585
atp3586
Rp3587
sV1031
p3588
g2
((lp3589
g3588
atp3590
Rp3591
sV1037
p3592
g2
((lp3593
V1036
p3594
ag3592
aV709
p3595
atp3596
Rp3597
sV2361
p3598
g2
((lp3599
g3598
aV2360
p3600
atp3601
Rp3602
sV2151
p3603
g2
((lp3604
V2424
p3605
ag3603
atp3606
Rp3607
sV1212
p3608
g2
((lp3609
g3608
atp3610
Rp3611
sV631
p3612
g2
((lp3613
g3612
aV634
p3614
aV622
p3615
atp3616
Rp3617
sV1359
p3618
g2
((lp3619
g3618
aV1358
p3620
aV1357
p3621
aV1280
p3622
atp3623
Rp3624
sV2430
p3625
g2
((lp3626
V2429
p3627
ag3625
atp3628
Rp3629
sV469
p3630
g2
((lp3631
V470
p3632
ag3630
atp3633
Rp3634
sV401
p3635
g2
((lp3636
g3635
atp3637
Rp3638
sV1214
p3639
g2
((lp3640
V1213
p3641
aV1221
p3642
ag3639
aV1222
p3643
atp3644
Rp3645
sV2580
p3646
g2
((lp3647
V2585
p3648
aV2584
p3649
aV2583
p3650
ag3646
atp3651
Rp3652
sV465
p3653
g2
((lp3654
g3653
atp3655
Rp3656
sV464
p3657
g2
((lp3658
g3657
aV460
p3659
aV459
p3660
atp3661
Rp3662
sV1218
p3663
g2
((lp3664
g3663
atp3665
Rp3666
sV2153
p3667
g2
((lp3668
V2155
p3669
ag3667
atp3670
Rp3671
sV2425
p3672
g2
((lp3673
g3672
atp3674
Rp3675
sV2426
p3676
g2
((lp3677
V2439
p3678
ag3676
aV2427
p3679
atp3680
Rp3681
sV1200
p3682
g2
((lp3683
V1201
p3684
aV1195
p3685
ag3682
atp3686
Rp3687
sV1860
p3688
g2
((lp3689
V1861
p3690
ag3688
atp3691
Rp3692
sV901
p3693
g2
((lp3694
V902
p3695
ag3693
aV906
p3696
atp3697
Rp3698
sV1865
p3699
g2
((lp3700
g3699
aV1871
p3701
atp3702
Rp3703
sV736
p3704
g2
((lp3705
V738
p3706
aV737
p3707
ag3704
atp3708
Rp3709
sV1869
p3710
g2
((lp3711
g3710
aV1867
p3712
aV1870
p3713
aV1866
p3714
atp3715
Rp3716
sV1868
p3717
g2
((lp3718
g3717
atp3719
Rp3720
sV167
p3721
g2
((lp3722
V175
p3723
ag3721
atp3724
Rp3725
sV586
p3726
g2
((lp3727
g3726
aV612
p3728
atp3729
Rp3730
sV163
p3731
g2
((lp3732
V326
p3733
ag3731
atp3734
Rp3735
sV282
p3736
g2
((lp3737
V269
p3738
ag3736
atp3739
Rp3740
sV961
p3741
g2
((lp3742
V960
p3743
ag3741
atp3744
Rp3745
sV962
p3746
g2
((lp3747
V1002
p3748
ag3746
atp3749
Rp3750
sV963
p3751
g2
((lp3752
V964
p3753
aV1246
p3754
ag3751
atp3755
Rp3756
sV968
p3757
g2
((lp3758
V965
p3759
aV966
p3760
ag3757
atp3761
Rp3762
sV969
p3763
g2
((lp3764
g3763
atp3765
Rp3766
sV2010
p3767
g2
((lp3768
V2008
p3769
ag3767
atp3770
Rp3771
sV1107
p3772
g2
((lp3773
g3772
aV812
p3774
aV813
p3775
aV814
p3776
aV815
p3777
atp3778
Rp3779
sV1104
p3780
g2
((lp3781
V1106
p3782
ag3780
atp3783
Rp3784
sV1105
p3785
g2
((lp3786
V1094
p3787
ag3785
aV1093
p3788
atp3789
Rp3790
sV1450
p3791
g2
((lp3792
g3791
aV1452
p3793
aV1449
p3794
atp3795
Rp3796
sV1103
p3797
g2
((lp3798
g3797
atp3799
Rp3800
sV1453
p3801
g2
((lp3802
V1486
p3803
ag3801
atp3804
Rp3805
sV2066
p3806
g2
((lp3807
V2015
p3808
ag3806
atp3809
Rp3810
sV2516
p3811
g2
((lp3812
g3811
aV2519
p3813
atp3814
Rp3815
sV2517
p3816
g2
((lp3817
g3816
atp3818
Rp3819
sV1511
p3820
g2
((lp3821
V1514
p3822
ag3820
atp3823
Rp3824
sV1841
p3825
g2
((lp3826
V1843
p3827
aV1842
p3828
ag3825
atp3829
Rp3830
sV2512
p3831
g2
((lp3832
V2514
p3833
aV2515
p3834
ag3831
aV2513
p3835
atp3836
Rp3837
sV1109
p3838
g2
((lp3839
V1112
p3840
aV1108
p3841
ag3838
atp3842
Rp3843
sV1722
p3844
g2
((lp3845
g3844
aV1720
p3846
atp3847
Rp3848
sV1440
p3849
g2
((lp3850
V1495
p3851
ag3849
atp3852
Rp3853
sV1648
p3854
g2
((lp3855
V1647
p3856
ag3854
atp3857
Rp3858
sV35
p3859
g2
((lp3860
V33
p3861
aV249
p3862
ag3859
atp3863
Rp3864
sV2418
p3865
g2
((lp3866
g3865
aV2144
p3867
aV2143
p3868
atp3869
Rp3870
sV1088
p3871
g2
((lp3872
V1087
p3873
ag3871
atp3874
Rp3875
sV34
p3876
g2
((lp3877
V230
p3878
ag3876
atp3879
Rp3880
sV1577
p3881
g2
((lp3882
V1578
p3883
ag3881
atp3884
Rp3885
sV679
p3886
g2
((lp3887
g3886
aV680
p3888
atp3889
Rp3890
sV1814
p3891
g2
((lp3892
g3891
atp3893
Rp3894
sV1817
p3895
g2
((lp3896
V1825
p3897
ag3895
atp3898
Rp3899
sV1812
p3900
g2
((lp3901
g3900
atp3902
Rp3903
sV1240
p3904
g2
((lp3905
V1241
p3906
ag3904
aV1235
p3907
atp3908
Rp3909
sV874
p3910
g2
((lp3911
g3910
atp3912
Rp3913
sV875
p3914
g2
((lp3915
g3914
aV967
p3916
atp3917
Rp3918
sV1818
p3919
g2
((lp3920
g3919
atp3921
Rp3922
sV1819
p3923
g2
((lp3924
g3923
atp3925
Rp3926
sV871
p3927
g2
((lp3928
V872
p3929
aV873
p3930
aV870
p3931
ag3927
atp3932
Rp3933
sV2036
p3934
g2
((lp3935
V2037
p3936
ag3934
aV2026
p3937
aV2042
p3938
atp3939
Rp3940
sV1242
p3941
g2
((lp3942
g3941
atp3943
Rp3944
sV2033
p3945
g2
((lp3946
g3945
atp3947
Rp3948
sV2032
p3949
g2
((lp3950
g3949
atp3951
Rp3952
sV2030
p3953
g2
((lp3954
V2043
p3955
aV2031
p3956
ag3953
atp3957
Rp3958
sV9
p3959
g2
((lp3960
g3959
aV11
p3961
aV1197
p3962
aV10
p3963
atp3964
Rp3965
sV2074
p3966
g2
((lp3967
V2073
p3968
ag3966
atp3969
Rp3970
sV1893
p3971
g2
((lp3972
V1894
p3973
aV1895
p3974
ag3971
atp3975
Rp3976
sV2038
p3977
g2
((lp3978
V2041
p3979
aV2039
p3980
aV2040
p3981
ag3977
atp3982
Rp3983
sV890
p3984
g2
((lp3985
g3984
aV888
p3986
aV978
p3987
atp3988
Rp3989
sV891
p3990
g2
((lp3991
g3990
aV754
p3992
aV834
p3993
aV833
p3994
atp3995
Rp3996
sV892
p3997
g2
((lp3998
g3997
aV905
p3999
atp4000
Rp4001
sV894
p4002
g2
((lp4003
V915
p4004
aV893
p4005
ag4002
aV895
p4006
aV904
p4007
atp4008
Rp4009
sV896
p4010
g2
((lp4011
V755
p4012
ag4010
aV897
p4013
atp4014
Rp4015
sV898
p4016
g2
((lp4017
g4016
aV899
p4018
aV900
p4019
aV765
p4020
atp4021
Rp4022
sV649
p4023
g2
((lp4024
g4023
aV650
p4025
atp4026
Rp4027
sV720
p4028
g2
((lp4029
V719
p4030
ag4028
atp4031
Rp4032
sV648
p4033
g2
((lp4034
g4033
atp4035
Rp4036
sV2069
p4037
g2
((lp4038
g4037
aV2080
p4039
atp4040
Rp4041
sV2133
p4042
g2
((lp4043
g4042
aV2092
p4044
atp4045
Rp4046
sV1609
p4047
g2
((lp4048
g4047
aV1616
p4049
aV1610
p4050
aV1611
p4051
atp4052
Rp4053
sV1338
p4054
g2
((lp4055
g4054
atp4056
Rp4057
sV1979
p4058
g2
((lp4059
V1975
p4060
ag4058
aV2049
p4061
atp4062
Rp4063
sV1978
p4064
g2
((lp4065
V1976
p4066
ag4064
atp4067
Rp4068
sV1977
p4069
g2
((lp4070
g4069
aV1968
p4071
atp4072
Rp4073
sV1602
p4074
g2
((lp4075
V1600
p4076
ag4074
atp4077
Rp4078
sV1604
p4079
g2
((lp4080
V1596
p4081
aV1605
p4082
ag4079
aV1607
p4083
atp4084
Rp4085
sV1606
p4086
g2
((lp4087
V1608
p4088
ag4086
atp4089
Rp4090
sV355
p4091
g2
((lp4092
V357
p4093
aV356
p4094
ag4091
atp4095
Rp4096
sV1617
p4097
g2
((lp4098
g4097
atp4099
Rp4100
sV802
p4101
g2
((lp4102
V803
p4103
ag4101
aV800
p4104
atp4105
Rp4106
sV807
p4107
g2
((lp4108
V808
p4109
ag4107
atp4110
Rp4111
sV358
p4112
g2
((lp4113
V359
p4114
aV360
p4115
ag4112
atp4116
Rp4117
sV217
p4118
g2
((lp4119
V216
p4120
ag4118
aV220
p4121
atp4122
Rp4123
sV768
p4124
g2
((lp4125
g4124
aV764
p4126
atp4127
Rp4128
sV769
p4129
g2
((lp4130
V801
p4131
ag4129
aV804
p4132
atp4133
Rp4134
sV213
p4135
g2
((lp4136
V303
p4137
aV212
p4138
ag4135
atp4139
Rp4140
sV210
p4141
g2
((lp4142
g4141
aV211
p4143
atp4144
Rp4145
sV762
p4146
g2
((lp4147
g4146
aV761
p4148
atp4149
Rp4150
sV1781
p4151
g2
((lp4152
V1780
p4153
ag4151
aV1791
p4154
atp4155
Rp4156
sV1785
p4157
g2
((lp4158
V1784
p4159
ag4157
atp4160
Rp4161
sV218
p4162
g2
((lp4163
V224
p4164
ag4162
aV219
p4165
atp4166
Rp4167
sV1787
p4168
g2
((lp4169
V1797
p4170
ag4168
atp4171
Rp4172
sV463
p4173
g2
((lp4174
V461
p4175
ag4173
atp4176
Rp4177
sV2139
p4178
g2
((lp4179
g4178
atp4180
Rp4181
sV1033
p4182
g2
((lp4183
V1032
p4184
ag4182
aV1041
p4185
aV1039
p4186
aV1034
p4187
atp4188
Rp4189
sV1568
p4190
g2
((lp4191
g4190
aV1569
p4192
aV1570
p4193
aV1567
p4194
atp4195
Rp4196
sV1777
p4197
g2
((lp4198
g4197
atp4199
Rp4200
sV1776
p4201
g2
((lp4202
g4201
atp4203
Rp4204
sV1770
p4205
g2
((lp4206
V1782
p4207
aV1783
p4208
ag4205
atp4209
Rp4210
sV1773
p4211
g2
((lp4212
V1775
p4213
ag4211
atp4214
Rp4215
sV1772
p4216
g2
((lp4217
V1774
p4218
aV1771
p4219
aV1723
p4220
ag4216
atp4221
Rp4222
sV2329
p4223
g2
((lp4224
V2330
p4225
ag4223
atp4226
Rp4227
sV1075
p4228
g2
((lp4229
V1076
p4230
aV1077
p4231
ag4228
atp4232
Rp4233
sV1072
p4234
g2
((lp4235
g4234
aV1153
p4236
atp4237
Rp4238
sV1778
p4239
g2
((lp4240
V1779
p4241
ag4239
atp4242
Rp4243
sV1070
p4244
g2
((lp4245
V1074
p4246
aV1073
p4247
ag4244
atp4248
Rp4249
sV289
p4250
g2
((lp4251
g4250
aV292
p4252
aV293
p4253
atp4254
Rp4255
sV939
p4256
g2
((lp4257
g4256
aV942
p4258
atp4259
Rp4260
sV608
p4261
g2
((lp4262
V607
p4263
ag4261
atp4264
Rp4265
sV1679
p4266
g2
((lp4267
V1579
p4268
ag4266
atp4269
Rp4270
sV1674
p4271
g2
((lp4272
g4271
aV1675
p4273
aV1837
p4274
atp4275
Rp4276
sV5
p4277
g2
((lp4278
V1204
p4279
aV1219
p4280
ag4277
aV6
p4281
atp4282
Rp4283
sV1676
p4284
g2
((lp4285
g4284
aV1839
p4286
aV1838
p4287
atp4288
Rp4289
sV1677
p4290
g2
((lp4291
g4290
aV1678
p4292
aV104
p4293
aV105
p4294
atp4295
Rp4296
sV1670
p4297
g2
((lp4298
g4297
aV1925
p4299
aV1927
p4300
atp4301
Rp4302
sV1671
p4303
g2
((lp4304
g4303
atp4305
Rp4306
sV287
p4307
g2
((lp4308
V288
p4309
aV1612
p4310
ag4307
atp4311
Rp4312
sV1673
p4313
g2
((lp4314
g4313
atp4315
Rp4316
sV1095
p4317
g2
((lp4318
g4317
aV1096
p4319
atp4320
Rp4321
sV1097
p4322
g2
((lp4323
V1120
p4324
ag4322
atp4325
Rp4326
sV1090
p4327
g2
((lp4328
g4327
aV1089
p4329
atp4330
Rp4331
sV1158
p4332
g2
((lp4333
V1164
p4334
aV1157
p4335
aV1149
p4336
aV1159
p4337
ag4332
atp4338
Rp4339
sV1092
p4340
g2
((lp4341
V1091
p4342
ag4340
atp4343
Rp4344
sV1793
p4345
g2
((lp4346
g4345
aV1794
p4347
atp4348
Rp4349
sV675
p4350
g2
((lp4351
V674
p4352
ag4350
aV663
p4353
atp4354
Rp4355
sV676
p4356
g2
((lp4357
g4356
aV830
p4358
atp4359
Rp4360
sV677
p4361
g2
((lp4362
g4361
atp4363
Rp4364
sV670
p4365
g2
((lp4366
g4365
aV671
p4367
atp4368
Rp4369
sV672
p4370
g2
((lp4371
g4370
atp4372
Rp4373
sV673
p4374
g2
((lp4375
V740
p4376
aV669
p4377
ag4374
atp4378
Rp4379
sV263
p4380
g2
((lp4381
g4380
aV265
p4382
aV207
p4383
atp4384
Rp4385
sV1560
p4386
g2
((lp4387
g4386
aV1623
p4388
aV1597
p4389
atp4390
Rp4391
sV261
p4392
g2
((lp4393
g4392
atp4394
Rp4395
sV260
p4396
g2
((lp4397
V270
p4398
aV281
p4399
ag4396
aV262
p4400
atp4401
Rp4402
sV333
p4403
g2
((lp4404
V334
p4405
aV632
p4406
aV330
p4407
ag4403
atp4408
Rp4409
sV264
p4410
g2
((lp4411
g4410
atp4412
Rp4413
sV286
p4414
g2
((lp4415
g4414
atp4416
Rp4417
sV268
p4418
g2
((lp4419
g4418
atp4420
Rp4421
sV1290
p4422
g2
((lp4423
g4422
atp4424
Rp4425
sV2499
p4426
g2
((lp4427
g4426
aV2498
p4428
atp4429
Rp4430
sV2551
p4431
g2
((lp4432
g4431
aV2553
p4433
atp4434
Rp4435
sV1553
p4436
g2
((lp4437
V1546
p4438
ag4436
aV1545
p4439
atp4440
Rp4441
sV1563
p4442
g2
((lp4443
V1562
p4444
ag4442
aV1542
p4445
aV1541
p4446
atp4447
Rp4448
sV1555
p4449
g2
((lp4450
V1547
p4451
ag4449
aV1548
p4452
atp4453
Rp4454
sV2556
p4455
g2
((lp4456
g4455
atp4457
Rp4458
sV1556
p4459
g2
((lp4460
V1552
p4461
aV1554
p4462
aV1557
p4463
ag4459
atp4464
Rp4465
sV1559
p4466
g2
((lp4467
g4466
atp4468
Rp4469
sV1558
p4470
g2
((lp4471
V1551
p4472
ag4470
aV1550
p4473
atp4474
Rp4475
sV2557
p4476
g2
((lp4477
V2448
p4478
ag4476
atp4479
Rp4480
sV2495
p4481
g2
((lp4482
V2510
p4483
aV1017
p4484
ag4481
atp4485
Rp4486
sV258
p4487
g2
((lp4488
g4487
aV257
p4489
atp4490
Rp4491
sV2496
p4492
g2
((lp4493
V2511
p4494
aV2497
p4495
ag4492
atp4496
Rp4497
sV2491
p4498
g2
((lp4499
g4498
aV2486
p4500
atp4501
Rp4502
sV2395
p4503
g2
((lp4504
V2396
p4505
aV2397
p4506
ag4503
aV2415
p4507
aV2398
p4508
atp4509
Rp4510
sV533
p4511
g2
((lp4512
V537
p4513
aV535
p4514
ag4511
atp4515
Rp4516
sV531
p4517
g2
((lp4518
V534
p4519
aV532
p4520
ag4517
atp4521
Rp4522
sV530
p4523
g2
((lp4524
V528
p4525
aV529
p4526
ag4523
atp4527
Rp4528
sV2257
p4529
g2
((lp4530
g4529
aV2266
p4531
aV2258
p4532
atp4533
Rp4534
sV1411
p4535
g2
((lp4536
V1226
p4537
aV1225
p4538
ag4535
aV1413
p4539
aV1414
p4540
aV1415
p4541
atp4542
Rp4543
sV1412
p4544
g2
((lp4545
g4544
atp4546
Rp4547
sV1295
p4548
g2
((lp4549
V1296
p4550
aV1301
p4551
aV1302
p4552
ag4548
atp4553
Rp4554
sV2253
p4555
g2
((lp4556
V2254
p4557
ag4555
atp4558
Rp4559
sV1416
p4560
g2
((lp4561
g4560
atp4562
Rp4563
sV538
p4564
g2
((lp4565
V542
p4566
aV539
p4567
ag4564
atp4568
Rp4569
sV1322
p4570
g2
((lp4571
g4570
atp4572
Rp4573
sV1323
p4574
g2
((lp4575
g4574
atp4576
Rp4577
sV1320
p4578
g2
((lp4579
g4578
atp4580
Rp4581
sV2492
p4582
g2
((lp4583
V2525
p4584
ag4582
atp4585
Rp4586
sV1326
p4587
g2
((lp4588
g4587
aV1327
p4589
atp4590
Rp4591
sV2196
p4592
g2
((lp4593
V2193
p4594
aV2194
p4595
ag4592
atp4596
Rp4597
sV1324
p4598
g2
((lp4599
V1321
p4600
ag4598
atp4601
Rp4602
sV1325
p4603
g2
((lp4604
g4603
atp4605
Rp4606
sV2364
p4607
g2
((lp4608
g4607
aV2363
p4609
aV879
p4610
atp4611
Rp4612
sV983
p4613
g2
((lp4614
g4613
atp4615
Rp4616
sV980
p4617
g2
((lp4618
g4617
atp4619
Rp4620
sV1329
p4621
g2
((lp4622
V1307
p4623
ag4621
aV1330
p4624
atp4625
Rp4626
sV986
p4627
g2
((lp4628
g4627
aV979
p4629
atp4630
Rp4631
sV987
p4632
g2
((lp4633
V988
p4634
ag4632
atp4635
Rp4636
sV2479
p4637
g2
((lp4638
V2469
p4639
ag4637
aV2470
p4640
atp4641
Rp4642
sV2494
p4643
g2
((lp4644
V27
p4645
aV28
p4646
ag4643
atp4647
Rp4648
sV68
p4649
g2
((lp4650
g4649
aV60
p4651
atp4652
Rp4653
sV1790
p4654
g2
((lp4655
V1806
p4656
ag4654
aV1802
p4657
aV1796
p4658
atp4659
Rp4660
sV2176
p4661
g2
((lp4662
V2165
p4663
aV2166
p4664
ag4661
atp4665
Rp4666
sV110
p4667
g2
((lp4668
g4667
atp4669
Rp4670
sV113
p4671
g2
((lp4672
V115
p4673
aV114
p4674
ag4671
atp4675
Rp4676
sV2199
p4677
g2
((lp4678
V2213
p4679
ag4677
aV2202
p4680
atp4681
Rp4682
sV118
p4683
g2
((lp4684
V120
p4685
aV117
p4686
aV116
p4687
aV119
p4688
ag4683
atp4689
Rp4690
sV1850
p4691
g2
((lp4692
g4691
aV1836
p4693
atp4694
Rp4695
sV1851
p4696
g2
((lp4697
g4696
aV1847
p4698
atp4699
Rp4700
sV1852
p4701
g2
((lp4702
g4701
atp4703
Rp4704
sV1853
p4705
g2
((lp4706
g4705
aV1854
p4707
atp4708
Rp4709
sV1856
p4710
g2
((lp4711
V1858
p4712
aV1855
p4713
ag4710
atp4714
Rp4715
sV1857
p4716
g2
((lp4717
V1863
p4718
aV1864
p4719
ag4716
atp4720
Rp4721
sV428
p4722
g2
((lp4723
V414
p4724
ag4722
aV429
p4725
aV413
p4726
atp4727
Rp4728
sV2170
p4729
g2
((lp4730
g4729
aV2077
p4731
atp4732
Rp4733
sV1255
p4734
g2
((lp4735
g4734
atp4736
Rp4737
sV919
p4738
g2
((lp4739
V920
p4740
ag4738
aV927
p4741
atp4742
Rp4743
sV918
p4744
g2
((lp4745
g4744
atp4746
Rp4747
sV2174
p4748
g2
((lp4749
V2172
p4750
aV2173
p4751
ag4748
atp4752
Rp4753
sV1398
p4754
g2
((lp4755
V1386
p4756
ag4754
atp4757
Rp4758
sV420
p4759
g2
((lp4760
g4759
aV422
p4761
aV432
p4762
atp4763
Rp4764
sV2071
p4765
g2
((lp4766
V2072
p4767
ag4765
atp4768
Rp4769
sV916
p4770
g2
((lp4771
V917
p4772
ag4770
atp4773
Rp4774
sV1393
p4775
g2
((lp4776
V1395
p4777
aV1394
p4778
ag4775
atp4779
Rp4780
sV1391
p4781
g2
((lp4782
g4781
atp4783
Rp4784
sV1390
p4785
g2
((lp4786
V1384
p4787
ag4785
atp4788
Rp4789
sV2569
p4790
g2
((lp4791
g4790
aV2459
p4792
atp4793
Rp4794
sV2606
p4795
g2
((lp4796
g4795
aV2607
p4797
atp4798
Rp4799
sV2259
p4800
g2
((lp4801
V2305
p4802
aV2304
p4803
ag4800
aV2306
p4804
atp4805
Rp4806
sV2602
p4807
g2
((lp4808
g4807
aV2603
p4809
atp4810
Rp4811
sV2568
p4812
g2
((lp4813
g4812
aV2574
p4814
atp4815
Rp4816
sV300
p4817
g2
((lp4818
g4817
atp4819
Rp4820
sV302
p4821
g2
((lp4822
g4821
atp4823
Rp4824
sV305
p4825
g2
((lp4826
g4825
atp4827
Rp4828
sV306
p4829
g2
((lp4830
V290
p4831
ag4829
aV291
p4832
atp4833
Rp4834
sV307
p4835
g2
((lp4836
V308
p4837
aV309
p4838
ag4835
atp4839
Rp4840
sV1932
p4841
g2
((lp4842
V1933
p4843
ag4841
atp4844
Rp4845
sV1930
p4846
g2
((lp4847
g4846
atp4848
Rp4849
sV1937
p4850
g2
((lp4851
V1948
p4852
aV1938
p4853
ag4850
atp4854
Rp4855
sV1936
p4856
g2
((lp4857
V1942
p4858
aV1941
p4859
ag4856
atp4860
Rp4861
sV1934
p4862
g2
((lp4863
V1931
p4864
aV1935
p4865
ag4862
atp4866
Rp4867
sV1939
p4868
g2
((lp4869
g4868
atp4870
Rp4871
sV2255
p4872
g2
((lp4873
g4872
atp4874
Rp4875
sV1389
p4876
g2
((lp4877
V1408
p4878
aV1425
p4879
ag4876
aV1368
p4880
atp4881
Rp4882
sV847
p4883
g2
((lp4884
g4883
aV911
p4885
atp4886
Rp4887
sV844
p4888
g2
((lp4889
g4888
aV837
p4890
atp4891
Rp4892
sV843
p4893
g2
((lp4894
g4893
atp4895
Rp4896
sV841
p4897
g2
((lp4898
V846
p4899
aV842
p4900
ag4897
atp4901
Rp4902
sV840
p4903
g2
((lp4904
V832
p4905
ag4903
atp4906
Rp4907
sV1747
p4908
g2
((lp4909
V1738
p4910
ag4908
atp4911
Rp4912
sV1426
p4913
g2
((lp4914
V1397
p4915
aV1431
p4916
aV1427
p4917
ag4913
atp4918
Rp4919
sV1406
p4920
g2
((lp4921
V1403
p4922
ag4920
aV1417
p4923
atp4924
Rp4925
sV1428
p4926
g2
((lp4927
g4926
atp4928
Rp4929
sV2477
p4930
g2
((lp4931
g4930
aV2476
p4932
aV2475
p4933
aV2488
p4934
aV2489
p4935
aV2487
p4936
atp4937
Rp4938
sV2562
p4939
g2
((lp4940
V2563
p4941
ag4939
aV2449
p4942
atp4943
Rp4944
sV88
p4945
g2
((lp4946
g4945
aV89
p4947
atp4948
Rp4949
sV2109
p4950
g2
((lp4951
V2107
p4952
ag4950
aV2108
p4953
aV2114
p4954
aV2115
p4955
atp4956
Rp4957
sV1587
p4958
g2
((lp4959
V1586
p4960
ag4958
atp4961
Rp4962
sV989
p4963
g2
((lp4964
V977
p4965
ag4963
aV990
p4966
atp4967
Rp4968
sV2473
p4969
g2
((lp4970
V2474
p4971
ag4969
atp4972
Rp4973
sV1630
p4974
g2
((lp4975
g4974
aV1633
p4976
aV1656
p4977
aV1657
p4978
atp4979
Rp4980
sV1517
p4981
g2
((lp4982
g4981
aV1519
p4983
atp4984
Rp4985
sV1632
p4986
g2
((lp4987
V1631
p4988
ag4986
aV1624
p4989
aV1813
p4990
atp4991
Rp4992
sV1985
p4993
g2
((lp4994
g4993
aV1892
p4995
atp4996
Rp4997
sV1634
p4998
g2
((lp4999
V1815
p5000
ag4998
atp5001
Rp5002
sV1057
p5003
g2
((lp5004
V1058
p5005
aV1051
p5006
ag5003
atp5007
Rp5008
sV1980
p5009
g2
((lp5010
g5009
aV1981
p5011
atp5012
Rp5013
sV730
p5014
g2
((lp5015
g5014
aV716
p5016
atp5017
Rp5018
sV1638
p5019
g2
((lp5020
g5019
aV1639
p5021
aV1641
p5022
aV1640
p5023
atp5024
Rp5025
sV1732
p5026
g2
((lp5027
g5026
atp5028
Rp5029
sV1735
p5030
g2
((lp5031
V1731
p5032
ag5030
atp5033
Rp5034
sV1734
p5035
g2
((lp5036
V1745
p5037
aV1733
p5038
ag5035
atp5039
Rp5040
sV1736
p5041
g2
((lp5042
V1737
p5043
ag5041
atp5044
Rp5045
sV2587
p5046
g2
((lp5047
g5046
aV2573
p5048
atp5049
Rp5050
sV1169
p5051
g2
((lp5052
g5051
atp5053
Rp5054
sV2075
p5055
g2
((lp5056
V2164
p5057
ag5055
atp5058
Rp5059
sV568
p5060
g2
((lp5061
g5060
atp5062
Rp5063
sV1446
p5064
g2
((lp5065
V1454
p5066
ag5064
atp5067
Rp5068
sV751
p5069
g2
((lp5070
V753
p5071
aV752
p5072
ag5069
aV749
p5073
atp5074
Rp5075
sV981
p5076
g2
((lp5077
V982
p5078
aV975
p5079
ag5076
aV984
p5080
aV985
p5081
atp5082
Rp5083
sV756
p5084
g2
((lp5085
V757
p5086
ag5084
atp5087
Rp5088
sV2331
p5089
g2
((lp5090
g5089
aV2343
p5091
atp5092
Rp5093
sV560
p5094
g2
((lp5095
g5094
atp5096
Rp5097
sV561
p5098
g2
((lp5099
V573
p5100
ag5098
aV559
p5101
aV565
p5102
aV572
p5103
atp5104
Rp5105
sV562
p5106
g2
((lp5107
g5106
atp5108
Rp5109
sV758
p5110
g2
((lp5111
V759
p5112
ag5110
aV766
p5113
aV760
p5114
atp5115
Rp5116
sV566
p5117
g2
((lp5118
g5117
atp5119
Rp5120
sV567
p5121
g2
((lp5122
V563
p5123
aV564
p5124
ag5121
atp5125
Rp5126
sV739
p5127
g2
((lp5128
g5127
aV701
p5129
atp5130
Rp5131
sV2181
p5132
g2
((lp5133
V2182
p5134
ag5132
aV2180
p5135
aV2179
p5136
aV2237
p5137
atp5138
Rp5139
sV1591
p5140
g2
((lp5141
V1739
p5142
aV1689
p5143
ag5140
atp5144
Rp5145
sV2186
p5146
g2
((lp5147
g5146
atp5148
Rp5149
sV2185
p5150
g2
((lp5151
V2187
p5152
ag5150
atp5153
Rp5154
sV2184
p5155
g2
((lp5156
V2183
p5157
ag5155
atp5158
Rp5159
sV225
p5160
g2
((lp5161
V228
p5162
aV227
p5163
aV226
p5164
ag5160
aV223
p5165
aV222
p5166
atp5167
Rp5168
sV2478
p5169
g2
((lp5170
V2467
p5171
aV2468
p5172
ag5169
atp5173
Rp5174
sV1599
p5175
g2
((lp5176
V1603
p5177
aV1620
p5178
ag5175
atp5179
Rp5180
sV1598
p5181
g2
((lp5182
g5181
atp5183
Rp5184
sV221
p5185
g2
((lp5186
V231
p5187
ag5185
atp5188
Rp5189
sV2335
p5190
g2
((lp5191
V2334
p5192
ag5190
aV2336
p5193
atp5194
Rp5195
sV2212
p5196
g2
((lp5197
g5196
aV2209
p5198
atp5199
Rp5200
sV2210
p5201
g2
((lp5202
g5201
atp5203
Rp5204
sV1021
p5205
g2
((lp5206
g5205
aV1022
p5207
atp5208
Rp5209
sV1188
p5210
g2
((lp5211
V1154
p5212
ag5210
atp5213
Rp5214
sV2214
p5215
g2
((lp5216
V2218
p5217
aV2217
p5218
aV2215
p5219
ag5215
atp5220
Rp5221
sV1186
p5222
g2
((lp5223
g5222
aV1182
p5224
atp5225
Rp5226
sV1187
p5227
g2
((lp5228
g5227
aV1217
p5229
aV1215
p5230
atp5231
Rp5232
sV1184
p5233
g2
((lp5234
V1199
p5235
aV1198
p5236
ag5233
aV1185
p5237
atp5238
Rp5239
sV2337
p5240
g2
((lp5241
g5240
atp5242
Rp5243
sV1029
p5244
g2
((lp5245
V1030
p5246
ag5244
aV2509
p5247
atp5248
Rp5249
sV1481
p5250
g2
((lp5251
g5250
aV1480
p5252
aV1487
p5253
aV1485
p5254
atp5255
Rp5256
sV1180
p5257
g2
((lp5258
g5257
atp5259
Rp5260
sV503
p5261
g2
((lp5262
g5261
aV508
p5263
aV509
p5264
atp5265
Rp5266
sV1205
p5267
g2
((lp5268
g5267
aV1210
p5269
aV1211
p5270
atp5271
Rp5272
sV725
p5273
g2
((lp5274
V726
p5275
aV732
p5276
ag5273
aV727
p5277
atp5278
Rp5279
sV1508
p5280
g2
((lp5281
g5280
atp5282
Rp5283
sV2339
p5284
g2
((lp5285
V2338
p5286
ag5284
aV2340
p5287
atp5288
Rp5289
sV2350
p5290
g2
((lp5291
g5290
aV2390
p5292
aV2391
p5293
atp5294
Rp5295
sV501
p5296
g2
((lp5297
V504
p5298
aV505
p5299
ag5296
atp5300
Rp5301
sV2356
p5302
g2
((lp5303
g5302
atp5304
Rp5305
sV936
p5306
g2
((lp5307
g5306
atp5308
Rp5309
sV2354
p5310
g2
((lp5311
V2358
p5312
ag5310
atp5313
Rp5314
sV2355
p5315
g2
((lp5316
V2352
p5317
ag5315
atp5318
Rp5319
sV630
p5320
g2
((lp5321
g5320
aV678
p5322
aV517
p5323
aV516
p5324
atp5325
Rp5326
sV2438
p5327
g2
((lp5328
V2442
p5329
ag5327
aV2437
p5330
atp5331
Rp5332
sV1209
p5333
g2
((lp5334
V1207
p5335
ag5333
aV1208
p5336
atp5337
Rp5338
sV1161
p5339
g2
((lp5340
V613
p5341
ag5339
aV1162
p5342
aV1163
p5343
atp5344
Rp5345
sV602
p5346
g2
((lp5347
V601
p5348
aV600
p5349
aV614
p5350
ag5346
atp5351
Rp5352
sV2433
p5353
g2
((lp5354
g5353
aV2454
p5355
atp5356
Rp5357
sV2432
p5358
g2
((lp5359
g5358
aV2431
p5360
atp5361
Rp5362
sV394
p5363
g2
((lp5364
V395
p5365
ag5363
atp5366
Rp5367
sV609
p5368
g2
((lp5369
V605
p5370
aV610
p5371
aV611
p5372
ag5368
atp5373
Rp5374
sV2436
p5375
g2
((lp5376
V2440
p5377
ag5375
atp5378
Rp5379
sV1203
p5380
g2
((lp5381
V1216
p5382
ag5380
aV1202
p5383
atp5384
Rp5385
sV2434
p5386
g2
((lp5387
V2435
p5388
ag5386
atp5389
Rp5390
sV633
p5391
g2
((lp5392
V620
p5393
ag5391
atp5394
Rp5395
sV1248
p5396
g2
((lp5397
g5396
aV1245
p5398
atp5399
Rp5400
sV1897
p5401
g2
((lp5402
V1896
p5403
ag5401
aV1898
p5404
aV1899
p5405
aV1900
p5406
atp5407
Rp5408
sV635
p5409
g2
((lp5410
V638
p5411
aV636
p5412
ag5409
aV625
p5413
aV637
p5414
atp5415
Rp5416
sV958
p5417
g2
((lp5418
V959
p5419
ag5417
aV957
p5420
atp5421
Rp5422
sV2134
p5423
g2
((lp5424
V2136
p5425
ag5423
aV2093
p5426
atp5427
Rp5428
sV1488
p5429
g2
((lp5430
V1503
p5431
ag5429
atp5432
Rp5433
sV2132
p5434
g2
((lp5435
g5434
atp5436
Rp5437
sV2581
p5438
g2
((lp5439
V2586
p5440
aV2572
p5441
ag5438
aV2579
p5442
atp5443
Rp5444
sV48
p5445
g2
((lp5446
g5445
atp5447
Rp5448
sV49
p5449
g2
((lp5450
V51
p5451
aV50
p5452
ag5449
atp5453
Rp5454
sV950
p5455
g2
((lp5456
V2381
p5457
ag5455
aV951
p5458
atp5459
Rp5460
sV45
p5461
g2
((lp5462
V44
p5463
ag5461
aV43
p5464
atp5465
Rp5466
sV955
p5467
g2
((lp5468
g5467
atp5469
Rp5470
sV2034
p5471
g2
((lp5472
V2035
p5473
ag5471
atp5474
Rp5475
sV2138
p5476
g2
((lp5477
V2137
p5478
aV2135
p5479
ag5476
atp5480
Rp5481
sV956
p5482
g2
((lp5483
g5482
atp5484
Rp5485
sV1111
p5486
g2
((lp5487
g5486
aV1140
p5488
atp5489
Rp5490
sV1110
p5491
g2
((lp5492
g5491
aV1099
p5493
atp5494
Rp5495
sV1113
p5496
g2
((lp5497
g5496
aV1236
p5498
aV1114
p5499
atp5500
Rp5501
sV2001
p5502
g2
((lp5503
V2002
p5504
ag5502
atp5505
Rp5506
sV1115
p5507
g2
((lp5508
g5507
atp5509
Rp5510
sV1442
p5511
g2
((lp5512
V1444
p5513
aV1443
p5514
ag5511
atp5515
Rp5516
sV1117
p5517
g2
((lp5518
V1118
p5519
ag5517
atp5520
Rp5521
sV1116
p5522
g2
((lp5523
V1238
p5524
ag5522
atp5525
Rp5526
sV2507
p5527
g2
((lp5528
g5527
aV2502
p5529
aV2508
p5530
atp5531
Rp5532
sV2505
p5533
g2
((lp5534
V2524
p5535
ag5533
atp5536
Rp5537
sV85
p5538
g2
((lp5539
V86
p5540
aV87
p5541
ag5538
atp5542
Rp5543
sV2503
p5544
g2
((lp5545
g5544
atp5546
Rp5547
sV1351
p5548
g2
((lp5549
V1348
p5550
aV1349
p5551
ag5548
aV1352
p5552
atp5553
Rp5554
sV1566
p5555
g2
((lp5556
V1565
p5557
ag5555
atp5558
Rp5559
sV2500
p5560
g2
((lp5561
V2506
p5562
aV2504
p5563
aV2501
p5564
ag5560
atp5565
Rp5566
sV466
p5567
g2
((lp5568
V467
p5569
ag5567
aV427
p5570
aV426
p5571
atp5572
Rp5573
sV1360
p5574
g2
((lp5575
V1362
p5576
ag5574
aV1361
p5577
atp5578
Rp5579
sV2582
p5580
g2
((lp5581
g5580
atp5582
Rp5583
sV475
p5584
g2
((lp5585
V471
p5586
ag5584
atp5587
Rp5588
sV1356
p5589
g2
((lp5590
g5589
aV1276
p5591
atp5592
Rp5593
sV794
p5594
g2
((lp5595
V797
p5596
ag5594
atp5597
Rp5598
sV1355
p5599
g2
((lp5600
g5599
aV1354
p5601
atp5602
Rp5603
sV1441
p5604
g2
((lp5605
V1438
p5606
ag5604
atp5607
Rp5608
sV486
p5609
g2
((lp5610
V487
p5611
ag5609
atp5612
Rp5613
sV2588
p5614
g2
((lp5615
V2590
p5616
aV2592
p5617
ag5614
atp5618
Rp5619
sV483
p5620
g2
((lp5621
V484
p5622
ag5620
aV482
p5623
aV462
p5624
atp5625
Rp5626
sV481
p5627
g2
((lp5628
g5627
atp5629
Rp5630
sV480
p5631
g2
((lp5632
g5631
atp5633
Rp5634
sV479
p5635
g2
((lp5636
g5635
atp5637
Rp5638
sV1803
p5639
g2
((lp5640
V1807
p5641
aV1805
p5642
ag5639
atp5643
Rp5644
sV1801
p5645
g2
((lp5646
V1804
p5647
ag5645
atp5648
Rp5649
sV1800
p5650
g2
((lp5651
V1799
p5652
aV1798
p5653
ag5650
atp5654
Rp5655
sV590
p5656
g2
((lp5657
g5656
aV579
p5658
aV578
p5659
atp5660
Rp5661
sV1809
p5662
g2
((lp5663
V1810
p5664
aV1811
p5665
ag5662
atp5666
Rp5667
sV472
p5668
g2
((lp5669
g5668
aV431
p5670
atp5671
Rp5672
sV473
p5673
g2
((lp5674
g5673
aV474
p5675
atp5676
Rp5677
sV2000
p5678
g2
((lp5679
g5678
aV2021
p5680
aV2022
p5681
aV2023
p5682
atp5683
Rp5684
sV1862
p5685
g2
((lp5686
g5685
aV1808
p5687
atp5688
Rp5689
sV476
p5690
g2
((lp5691
g5690
aV849
p5692
aV848
p5693
atp5694
Rp5695
sV1363
p5696
g2
((lp5697
g5696
atp5698
Rp5699
sV2004
p5700
g2
((lp5701
g5700
atp5702
Rp5703
sV2005
p5704
g2
((lp5705
V1999
p5706
aV2006
p5707
ag5704
atp5708
Rp5709
sV2009
p5710
g2
((lp5711
V2003
p5712
ag5710
aV2007
p5713
atp5714
Rp5715
sV1369
p5716
g2
((lp5717
V1370
p5718
aV1407
p5719
ag5716
atp5720
Rp5721
s.