(dp1
I1146880
I2832
sI1146884
I3080
sI1146885
I2884
sI1146886
I2073
sI1146887
I1001
sI1146889
I2159
sI1146893
I912
sI1146895
I4234
sI1146897
I2079
sI1146900
I4231
sI1146901
I2997
sI1146904
I1001
sI1146906
I3318
sI1146911
I5272
sI1146914
I4111
sI1146915
I2870
sI109233
I991
sI1146921
I1014
sI1146925
I2217
sI1146926
I3721
sI1146929
I2080
sI1146930
I1996
sI1146931
I2405
sI1146933
I3019
sI1146939
I5661
sI1146941
I4229
sI1146943
I3699
sI1146944
I4070
sI1146945
I3582
sI1146949
I1002
sI1146951
I1938
sI1146955
I5792
sI1146960
I2967
sI1146967
I3246
sI1146972
I2111
sI1146979
I3641
sI1146986
I2081
sI1146987
I2771
sI1146990
I3624
sI1146993
I2161
sI1146995
I2407
sI1147004
I3667
sI1147006
I4023
sI1147010
I1239
sI98435
I1893
sI1147012
I9588
sI1147014
I3040
sI1147018
I2891
sI1147024
I1455
sI1147026
I1449
sI98455
I3577
sI1147041
I4772
sI1147042
I3992
sI1147048
I3827
sI1147051
I4014
sI1147052
I2383
sI1147055
I2250
sI1147059
I3576
sI1147063
I2693
sI1147065
I3564
sI1147067
I2936
sI1147069
I895
sI1147070
I2936
sI1147072
I5743
sI1147073
I2648
sI1147081
I2043
sI1147091
I5091
sI1147111
I6816
sI1147115
I2967
sI122644
I2313
sI1147188
I6020
sI1147189
I2798
sI1147194
I4466
sI1147199
I4967
sI1147202
I3660
sI1147203
I2462
sI1147205
I2229
sI1147207
I0
sI98634
I2785
sI1147211
I5286
sI1147213
I4727
sI1147216
I1220
sI1147217
I5668
sI98647
I4402
sI1147225
I6516
sI1147235
I3095
sI1147242
I3161
sI1147243
I3071
sI1147248
I3909
sI98682
I4171
sI1147290
I4156
sI98731
I2498
sI98738
I2971
sI1147315
I2017
sI1147319
I3338
sI1147322
I3225
sI1152415
I4379
sI1147361
I3045
sI98790
I4076
sI1147374
I2444
sI1147377
I1915
sI1147378
I3557
sI1147379
I2667
sI1147385
I2934
sI98812
I1834
sI1147393
I1334
sI1147396
I2826
sI1147397
I2101
sI1147398
I1125
sI1147399
I3670
sI1147401
I1865
sI1147402
I996
sI1147403
I1430
sI1147407
I2000
sI1147409
I3252
sI1147411
I3165
sI1147414
I2872
sI1147416
I996
sI1147417
I3104
sI1147418
I2212
sI1147420
I1660
sI1147422
I2108
sI98847
I2849
sI1147425
I1930
sI1147426
I1973
sI1147428
I2412
sI1147432
I2714
sI1147434
I1004
sI1147435
I2600
sI1147438
I2157
sI1147441
I3224
sI1147442
I1933
sI1147446
I2684
sI1147448
I3086
sI1147449
I3641
sI1147450
I4031
sI114783
I1782
sI1147452
I3440
sI98877
I2987
sI1147457
I3667
sI1147462
I3011
sI1147464
I3014
sI1147465
I2108
sI1147466
I1975
sI1147467
I2708
sI1147468
I1555
sI1147469
I1237
sI1147470
I2119
sI1147477
I2942
sI1147480
I1969
sI1147484
I2580
sI1147487
I2827
sI1147489
I6068
sI1157906
I2955
sI1162075
I1488
sI1147536
I2747
sI98967
I1606
sI1147545
I2478
sI1147549
I2459
sI109342
I1497
sI99004
I2920
sI99006
I2671
sI1147583
I2104
sI1147585
I1699
sI1147588
I1356
sI109345
I1782
sI1147592
I3889
sI1147595
I2247
sI1147596
I4398
sI1147599
I4028
sI1154631
I3066
sI1147611
I2119
sI1147617
I3698
sI1147618
I575
sI1147619
I2067
sI99044
I2192
sI1147621
I1832
sI99048
I3926
sI1147629
I3486
sI1147630
I2592
sI1147634
I3848
sI1147636
I3337
sI1147642
I5540
sI99067
I2621
sI1147646
I2476
sI99074
I2530
sI1147654
I2280
sI99081
I2837
sI1147658
I3026
sI1147664
I3996
sI99089
I1376
sI1147668
I1722
sI1147670
I3973
sI99097
I1909
sI1147674
I1915
sI1147676
I2081
sI1147679
I9675
sI1147680
I2224
sI1147681
I0
sI1147682
I3195
sI1147686
I1889
sI1147688
I3116
sI1147694
I3329
sI1147698
I2742
sI99142
I6292
sI99156
I2697
sI99192
I4073
sI1147773
I2075
sI1147780
I3079
sI1147782
I2004
sI1147784
I2075
sI1147785
I4606
sI99212
I0
sI1147792
I7740
sI1147794
I2585
sI109381
I1842
sI1147826
I3246
sI1147833
I3522
sI109386
I1857
sI1147872
I12396
sI1147873
I2724
sI99299
I9956
sI99300
I3959
sI99304
I0
sI1147882
I7133
sI1147893
I1156
sI1157975
I3686
sI99343
I1323
sI1147928
I3013
sI109402
I997
sI1147941
I3228
sI109405
I2482
sI1157983
I1823
sI114871
I562
sI99411
I5207
sI99433
I3562
sI1148011
I0
sI99445
I1447
sI1148024
I6325
sI1148028
I3293
sI1148031
I8427
sI1148035
I3659
sI1148052
I9038
sI1148059
I991
sI99584
I556
sI1148166
I1412
sI1148187
I5625
sI1148189
I3215
sI1148207
I1497
sI1148209
I0
sI1148211
I386
sI109450
I2558
sI99654
I1831
sI99655
I2745
sI1148234
I0
sI1148236
I2058
sI1148237
I1350
sI1148239
I3180
sI114915
I3110
sI1148244
I1994
sI1148246
I1060
sI1148249
I8062
sI1148252
I6032
sI1148253
I5725
sI1148254
I2477
sI1148260
I1852
sI1148264
I5793
sI109458
I6723
sI1148271
I2778
sI99697
I3110
sI109460
I3916
sI1148282
I2484
sI1148283
I2429
sI1148284
I1079
sI1148287
I1880
sI1148290
I2912
sI99751
I2660
sI1148330
I4472
sI1148332
I1363
sI1158051
I1983
sI1158052
I1111
sI99805
I4074
sI109479
I2151
sI1148402
I4554
sI109482
I0
sI99840
I4783
sI1148422
I4226
sI99852
I4538
sI99856
I8689
sI1148436
I6353
sI99879
I2641
sI1148466
I3280
sI109491
I1687
sI1148468
I2951
sI1148469
I12703
sI99896
I2500
sI1148478
I8964
sI122653
I2570
sI99990
I3994
sI2135665
I2551
sI100014
I5949
sI100016
I3413
sI1148595
I3086
sI1148599
I106
sI1148601
I8859
sI100043
I3291
sI109519
I4136
sI109521
I3003
sI100083
I3607
sI1148661
I2778
sI1148678
I5214
sI1148682
I5091
sI1148685
I4213
sI1148686
I8480
sI1148687
I7876
sI100113
I2716
sI1148691
I919
sI1148692
I1909
sI1148693
I11489
sI109532
I1218
sI100141
I3262
sI1148721
I2630
sI1148722
I2550
sI1148725
I5382
sI1148728
I8847
sI1148731
I2889
sI100177
I4106
sI98264
I1503
sI1148758
I3391
sI109540
I3831
sI1148829
I9572
sI109556
I1484
sI1148862
I4195
sI100288
I7623
sI100291
I4695
sI1148869
I1918
sI100297
I4476
sI1148881
I2608
sI1148882
I3476
sI2135715
I0
sI1148892
I2351
sI109563
I3074
sI2135719
I2706
sI109566
I3698
sI109573
I2889
sI1148960
I3872
sI109574
I2800
sI1158152
I1336
sI1157259
I2007
sI1149041
I3971
sI1149048
I3446
sI1149049
I3244
sI1149054
I3027
sI100505
I6128
sI1149084
I1665
sI1149092
I1827
sI1149093
I2098
sI1149094
I2205
sI1149096
I2263
sI1149103
I1160
sI1149105
I2186
sI1149107
I2074
sI100533
I2273
sI1149115
I3741
sI1149116
I4362
sI1141792
I1501
sI100553
I2929
sI109603
I2380
sI109610
I1111
sI1149191
I2100
sI1149193
I3624
sI2135767
I2513
sI1149197
I8667
sI1149201
I5502
sI1149202
I5171
sI100629
I1467
sI100648
I6305
sI100653
I10194
sI100668
I3577
sI1149281
I2405
sI1149287
I2056
sI100735
I6872
sI1149321
I10712
sI1149324
I1258
sI100749
I1201
sI100752
I1519
sI1158212
I1080
sI100781
I2768
sI1149366
I1606
sI1149381
I1244
sI1149382
I586
sI100816
I2976
sI100819
I5735
sI100833
I3050
sI100843
I3298
sI100861
I4258
sI100865
I5457
sI100866
I0
sI1149443
I4831
sI100893
I5233
sI1149472
I1823
sI1149480
I603
sI1149481
I1011
sI1149492
I2134
sI1149504
I4140
sI109664
I2907
sI100932
I2467
sI1158244
I1239
sI100959
I4880
sI1149536
I6151
sI109670
I2004
sI1149547
I749
sI1149549
I3527
sI1149552
I2141
sI1149571
I3300
sI1149572
I0
sI1149578
I1474
sI1149582
I2757
sI1149588
I2019
sI101021
I16907
sI1149608
I5986
sI101044
I4473
sI1149645
I3292
sI1149648
I868
sI1149649
I2037
sI1149655
I904
sI1149656
I3256
sI101088
I3626
sI101090
I4794
sI101091
I3401
sI1149669
I0
sI1149670
I3680
sI1149673
I1638
sI109693
I691
sI101104
I3709
sI101109
I2853
sI1149686
I3020
sI101119
I1054
sI1149699
I2927
sI1149702
I2642
sI1149703
I2942
sI1149705
I3561
sI1149709
I2864
sI1149711
I8210
sI1149713
I4180
sI1149733
I4554
sI1149734
I2391
sI101159
I2783
sI101160
I507
sI2135858
I754
sI101189
I3864
sI1149770
I122
sI1149771
I1336
sI101196
I11850
sI1149774
I9771
sI1149775
I3431
sI101211
I73
sI101212
I945
sI101216
I5864
sI109714
I2154
sI1149815
I2653
sI1149816
I4490
sI101249
I3450
sI101251
I4118
sI1149831
I2969
sI1158297
I2050
sI101281
I5891
sI1149908
I2919
sI104270
I2906
sI1149910
I506
sI1149911
I2462
sI109735
I3948
sI1149932
I1501
sI111397
I3619
sI1149970
I936
sI1149971
I1992
sI109742
I2921
sI1149979
I1931
sI1149982
I5220
sI1158321
I2571
sI101421
I1789
sI2135901
I3403
sI1150032
I2649
sI1150042
I3950
sI1150045
I7518
sI1150052
I1593
sI109758
I2111
sI101502
I0
sI109760
I2073
sI1150093
I0
sI1150101
I2547
sI1150102
I2788
sI1163252
I2345
sI109766
I3002
sI98844
I1222
sI109767
I2073
sI1150133
I1774
sI101560
I5555
sI1150140
I3204
sI104310
I3555
sI101596
I7219
sI109780
I3673
sI109783
I1157
sI101657
I4863
sI1150234
I1958
sI101662
I1450
sI101669
I1318
sI101670
I2002
sI109788
I3552
sI101674
I2619
sI1150254
I1334
sI1150255
I692
sI101682
I1521
sI101683
I665
sI1150260
I677
sI101685
I663
sI1150262
I1175
sI101688
I1327
sI101690
I1957
sI101693
I1699
sI1150273
I1401
sI101698
I1433
sI1150275
I1400
sI101701
I718
sI101702
I1953
sI1150280
I1285
sI1150281
I2825
sI101711
I1578
sI1150291
I2272
sI1150292
I2149
sI1150293
I2801
sI101719
I1464
sI101721
I1623
sI1150302
I1318
sI1150304
I3110
sI101730
I3305
sI1150310
I1445
sI1150313
I1404
sI1150314
I1556
sI1150315
I2380
sI101740
I2025
sI1150318
I1572
sI1150320
I813
sI1150322
I2757
sI101748
I1585
sI101751
I1540
sI1150328
I1874
sI1150330
I2150
sI1150331
I2549
sI1150333
I1579
sI101759
I2689
sI101761
I2660
sI1150341
I2023
sI101769
I1482
sI1150346
I2177
sI101771
I2051
sI1150348
I4699
sI1150349
I0
sI101778
I691
sI101781
I2624
sI101785
I5114
sI101786
I3399
sI101791
I1971
sI101792
I1466
sI101794
I8056
sI101795
I2593
sI1150377
I2318
sI101802
I1111
sI101809
I429
sI101813
I1998
sI101814
I2136
sI101817
I1432
sI101819
I1439
sI101821
I2500
sI101824
I4113
sI101825
I1325
sI101829
I2266
sI101831
I1080
sI101837
I3180
sI101847
I2662
sI1150424
I3986
sI101849
I2179
sI101855
I2241
sI101857
I1857
sI1150434
I2956
sI101859
I1076
sI1150437
I2902
sI101864
I4253
sI101865
I1490
sI1150442
I2758
sI101867
I2132
sI77053
I5495
sI101873
I2541
sI101874
I1872
sI101877
I4347
sI1150455
I4629
sI101882
I2891
sI1150463
I778
sI1150467
I4821
sI1150475
I3824
sI1150478
I2258
sI1150483
I2122
sI1150484
I1362
sI101912
I1992
sI101914
I1970
sI1150491
I2677
sI1150493
I2077
sI101922
I3020
sI101924
I1553
sI1150502
I3357
sI101927
I2001
sI1150504
I1477
sI101930
I2650
sI101932
I1655
sI101934
I2776
sI101938
I2005
sI101942
I1428
sI101945
I1011
sI101946
I2015
sI109834
I2126
sI101951
I2632
sI101952
I1413
sI101953
I3134
sI1150530
I3332
sI1158411
I2474
sI101958
I2025
sI101961
I1656
sI101962
I580
sI101964
I2050
sI101966
I1850
sI101970
I3892
sI101974
I1330
sI101976
I1111
sI101977
I1973
sI101978
I0
sI101979
I1205
sI101980
I1626
sI101981
I1698
sI101983
I4645
sI101989
I1660
sI101992
I1109
sI101994
I2546
sI101995
I2004
sI101997
I2783
sI102000
I3963
sI102002
I1584
sI102005
I544
sI102008
I2202
sI104383
I2995
sI102012
I5490
sI1150589
I4239
sI102015
I2586
sI1150595
I1589
sI109846
I2459
sI102023
I1708
sI102025
I2919
sI102027
I2664
sI102028
I1002
sI102033
I1822
sI102034
I2417
sI102038
I2308
sI1150616
I988
sI1150618
I2079
sI1150619
I2986
sI102046
I1000
sI1150624
I2108
sI1150625
I2112
sI1150628
I2065
sI102054
I3551
sI102057
I2982
sI102059
I1749
sI1150639
I2485
sI102064
I2835
sI102066
I4315
sI1150644
I2509
sI1150646
I2883
sI1150650
I0
sI109855
I2002
sI1150656
I3491
sI1150657
I3281
sI1150658
I2418
sI1150660
I2518
sI102088
I1781
sI102091
I3222
sI102094
I2609
sI102096
I2000
sI1150673
I1644
sI1150675
I1417
sI1150678
I3676
sI102104
I2077
sI1150681
I2022
sI102106
I3330
sI1150683
I3409
sI1150686
I4522
sI1152976
I3107
sI102115
I3412
sI102123
I6335
sI102127
I0
sI1150704
I509
sI102129
I2666
sI102132
I2023
sI102133
I439
sI102135
I2238
sI102142
I918
sI102143
I3580
sI102145
I4500
sI1150723
I0
sI102150
I1912
sI102151
I2071
sI102152
I2890
sI102153
I2809
sI1150733
I1160
sI102158
I1077
sI1150735
I2829
sI102161
I1891
sI1150738
I1001
sI1150740
I912
sI1150741
I2078
sI1150742
I2907
sI1150743
I1186
sI1150744
I2330
sI1142063
I3237
sI1150748
I2723
sI1150749
I2692
sI1150750
I1325
sI1150751
I912
sI111424
I2992
sI102179
I2759
sI102181
I1000
sI1150763
I5960
sI102189
I1609
sI1150767
I3991
sI1150770
I2994
sI1150773
I3064
sI1150775
I2822
sI1150776
I3316
sI1150778
I2003
sI1150780
I0
sI1150784
I2315
sI1150789
I1672
sI1150793
I2610
sI102218
I1683
sI1150795
I2498
sI1150798
I2489
sI1150804
I6239
sI1150807
I2716
sI1150808
I3814
sI1150809
I2225
sI1150811
I3297
sI1150812
I1501
sI1150813
I663
sI1150814
I2739
sI1150816
I1669
sI102242
I2652
sI1150820
I2453
sI1150822
I2002
sI102247
I2518
sI109884
I1978
sI1150827
I1897
sI1150830
I1751
sI102257
I2824
sI1150835
I0
sI1150836
I497
sI1150840
I3302
sI1150842
I2747
sI1150844
I726
sI1150845
I2536
sI102270
I1815
sI1150848
I1987
sI102274
I2347
sI102276
I3993
sI102278
I1980
sI102280
I2002
sI1150858
I2000
sI1150860
I2885
sI102285
I2477
sI102286
I2398
sI1150866
I1604
sI102291
I1317
sI1150868
I1987
sI1150873
I0
sI102298
I1827
sI1150876
I1720
sI102302
I4559
sI1158469
I3364
sI102304
I1409
sI102305
I1906
sI102306
I3250
sI102311
I2007
sI102312
I580
sI102315
I2039
sI102316
I6446
sI1150897
I1728
sI102325
I7121
sI1150905
I1930
sI1150907
I2551
sI1150912
I2503
sI102337
I2196
sI1150915
I1368
sI102340
I2913
sI102343
I2869
sI102345
I4437
sI1150923
I1000
sI1150924
I0
sI1150926
I3960
sI2133967
I1260
sI1150928
I1846
sI102353
I1921
sI1150930
I1769
sI1150931
I746
sI1150936
I5147
sI1150938
I3899
sI1150943
I2886
sI1150951
I2661
sI1150953
I4004
sI1150954
I2111
sI1150957
I2068
sI102382
I2574
sI1150959
I2995
sI1150960
I2136
sI1150964
I1114
sI1150965
I1326
sI102390
I2657
sI102395
I3326
sI1150972
I2000
sI102400
I2002
sI1150980
I3328
sI1150981
I4066
sI102408
I2002
sI1150987
I2113
sI1150992
I1685
sI1150994
I2983
sI102420
I2000
sI102422
I2000
sI1151000
I1907
sI1151001
I1957
sI102427
I1804
sI102428
I2779
sI102431
I1990
sI109915
I2002
sI102436
I3522
sI102438
I2073
sI102439
I667
sI102441
I1905
sI1151019
I2111
sI1151021
I2002
sI102447
I1001
sI102449
I1997
sI102450
I1891
sI102451
I2078
sI102453
I1891
sI1151031
I3068
sI102456
I2819
sI102460
I2997
sI102463
I3510
sI102466
I2912
sI102469
I2967
sI102472
I0
sI102473
I1828
sI102476
I2473
sI102477
I3068
sI102480
I2892
sI102481
I3000
sI109923
I1004
sI102485
I1889
sI102486
I2137
sI102487
I2000
sI1151068
I5081
sI102493
I3246
sI102496
I3246
sI102497
I3220
sI102498
I2741
sI102499
I3305
sI1151078
I912
sI1151079
I1939
sI1151081
I3331
sI1151084
I2171
sI102509
I3244
sI102515
I3738
sI102516
I1888
sI102517
I2790
sI102519
I1889
sI1151099
I2224
sI109930
I2445
sI1151102
I3011
sI102527
I2398
sI1151107
I2224
sI1151112
I2418
sI1151116
I3220
sI1151118
I3334
sI102543
I1410
sI102546
I2336
sI1151123
I1980
sI1151128
I2240
sI102554
I1990
sI102555
I1990
sI1151133
I0
sI102560
I2436
sI102561
I3244
sI1151138
I1891
sI102566
I2000
sI1151143
I2073
sI102571
I2902
sI102574
I1990
sI102575
I2000
sI102577
I995
sI102579
I1990
sI102581
I3582
sI102585
I2997
sI102586
I1556
sI1151164
I2000
sI102589
I2076
sI102592
I2897
sI102594
I2872
sI1151172
I1000
sI1151175
I2143
sI102603
I2028
sI1151180
I2077
sI102606
I1911
sI102607
I2993
sI102610
I1990
sI102612
I2146
sI102616
I1328
sI1151195
I3351
sI102620
I1410
sI102622
I2711
sI102623
I704
sI102626
I1546
sI1151203
I0
sI1151204
I2885
sI102629
I1655
sI102630
I1119
sI102631
I1991
sI102632
I2079
sI1151211
I1977
sI102636
I2937
sI102637
I1078
sI102638
I445
sI1158525
I2217
sI102640
I1771
sI102642
I3288
sI102644
I2111
sI102648
I1977
sI1151226
I1825
sI102652
I1722
sI1151229
I1225
sI102657
I2747
sI102660
I3140
sI1151240
I3918
sI1151242
I4700
sI102670
I2111
sI1151249
I2006
sI1151251
I1998
sI102680
I1079
sI1151259
I2999
sI1151261
I2113
sI1151267
I913
sI1151268
I1996
sI1151269
I2552
sI1151271
I2756
sI102696
I1919
sI1151273
I1914
sI2134314
I1246
sI1151275
I8079
sI2134316
I2002
sI1151279
I1920
sI1151280
I4207
sI1125768
I948
sI1151285
I5322
sI1151291
I2080
sI102716
I2074
sI102717
I2995
sI1151296
I2110
sI1151300
I3078
sI1151301
I2075
sI102727
I1124
sI102730
I1914
sI1151307
I2062
sI1151310
I2441
sI102737
I3091
sI102746
I7298
sI102748
I1502
sI1151325
I3172
sI102751
I6757
sI1151328
I2925
sI109968
I1984
sI102759
I2027
sI102762
I2331
sI102765
I2498
sI102767
I2089
sI102768
I2075
sI102769
I2998
sI102770
I3076
sI102771
I996
sI102774
I2001
sI102775
I2804
sI102776
I1974
sI102777
I3071
sI102783
I924
sI102785
I2125
sI102788
I2750
sI102795
I2115
sI102796
I2111
sI1151374
I1702
sI102799
I3134
sI113943
I1501
sI109976
I2883
sI1151380
I1591
sI102805
I1921
sI102807
I1469
sI102810
I4645
sI2134428
I1004
sI102816
I1998
sI1151397
I1234
sI1151398
I1556
sI102824
I1755
sI1151401
I2465
sI102827
I1777
sI1151404
I1591
sI102829
I1545
sI2134446
I2421
sI102835
I2671
sI102838
I3348
sI1151418
I3182
sI1151420
I4348
sI102845
I5779
sI1151424
I2239
sI109984
I1741
sI1151430
I10256
sI102857
I9051
sI1151434
I12730
sI102861
I5652
sI102864
I2700
sI1151448
I11184
sI109988
I3770
sI102876
I2795
sI102878
I15081
sI109989
I2176
sI1151456
I854
sI1151458
I3470
sI109990
I1239
sI1151463
I1913
sI1151464
I2075
sI1158567
I2051
sI102892
I2349
sI2134511
I3654
sI1151473
I5240
sI1151476
I3162
sI1151477
I2901
sI1151483
I2663
sI1151485
I2586
sI1151487
I1910
sI2134528
I0
sI102913
I2394
sI1151491
I1389
sI1151493
I830
sI2134534
I452
sI1151495
I1906
sI102921
I2073
sI1151498
I2199
sI102926
I1000
sI1151503
I0
sI1151506
I1784
sI102932
I1956
sI2134551
I2626
sI102936
I2816
sI2134553
I1081
sI1151514
I1078
sI2134556
I2574
sI1151518
I1114
sI1151519
I2143
sI102945
I2225
sI102949
I2184
sI102951
I2890
sI102952
I1140
sI102954
I3640
sI102956
I2097
sI102960
I0
sI1151537
I2394
sI1151539
I3504
sI1151540
I5714
sI1151545
I2504
sI102970
I1000
sI1151548
I1827
sI2134589
I2113
sI102974
I1579
sI1151551
I2028
sI1151554
I2984
sI1151555
I1967
sI1151558
I2113
sI2134600
I2817
sI2134601
I2487
sI1151562
I2849
sI1151563
I2166
sI2134604
I2175
sI2134605
I3436
sI1151568
I778
sI110008
I1893
sI1151570
I2002
sI104547
I2022
sI1151574
I3195
sI1151576
I3083
sI1151577
I2404
sI1151579
I2999
sI1151587
I2838
sI1151589
I2002
sI1151593
I3124
sI2134635
I2734
sI1151596
I2497
sI2134638
I2878
sI110013
I2988
sI1151600
I1293
sI1151601
I842
sI1151603
I1990
sI110014
I1334
sI1151607
I1546
sI1151610
I1990
sI110015
I1754
sI1151612
I2002
sI1151615
I2570
sI1151616
I3113
sI1151618
I995
sI1151621
I2830
sI1151625
I2243
sI103053
I3570
sI103054
I2275
sI1151631
I4018
sI1151633
I4366
sI1151638
I2991
sI1151639
I3187
sI1151641
I3883
sI99098
I0
sI1151646
I3108
sI1151647
I3814
sI1151648
I2002
sI1151651
I912
sI1151656
I2673
sI103081
I1078
sI103087
I1996
sI1151664
I2081
sI1151666
I2997
sI1151668
I1154
sI1151669
I0
sI110025
I998
sI1151674
I429
sI1151676
I1870
sI1151677
I2580
sI1151681
I3888
sI1151683
I1078
sI1151685
I4836
sI110028
I2111
sI103116
I1993
sI1151694
I2985
sI1151695
I2996
sI1151698
I474
sI1151699
I2603
sI1151701
I1553
sI1151702
I3012
sI1151704
I1114
sI103129
I2004
sI1151706
I2828
sI1151708
I1130
sI1151709
I2111
sI1151711
I3092
sI1151713
I2819
sI1151714
I1000
sI1151718
I1988
sI1151721
I3239
sI1151724
I2034
sI103149
I3066
sI1151727
I1669
sI1151730
I2847
sI110035
I2155
sI1151735
I1619
sI103161
I1327
sI1151740
I1624
sI1151741
I2029
sI1151744
I4002
sI1151745
I2073
sI103170
I4066
sI103171
I2738
sI1151749
I4106
sI1151750
I0
sI1151751
I1000
sI103176
I1166
sI1151753
I2079
sI1151754
I1137
sI1158615
I1889
sI1151756
I1993
sI1151757
I1996
sI1151758
I2079
sI1151759
I1999
sI110040
I2263
sI103188
I995
sI1151766
I2822
sI1151769
I2113
sI103194
I2000
sI103197
I4443
sI1151774
I918
sI1151775
I2271
sI1151777
I3839
sI1151780
I2124
sI1151782
I3706
sI1151784
I1014
sI1151785
I1747
sI1151786
I2493
sI103212
I3002
sI1151791
I2928
sI1151792
I1083
sI1151795
I2079
sI1151796
I1997
sI103221
I1996
sI1151798
I3987
sI1151800
I1990
sI1151801
I3045
sI103226
I2111
sI110047
I3222
sI103230
I3068
sI103231
I3004
sI103240
I1920
sI103242
I2000
sI1151820
I2940
sI103245
I2443
sI103248
I3072
sI1151830
I1369
sI1151831
I3934
sI1151835
I2002
sI1151836
I5155
sI1151837
I2801
sI1151840
I2376
sI103265
I3279
sI1151843
I1791
sI1151846
I1585
sI1151847
I2487
sI1151848
I1123
sI1151851
I1126
sI1151852
I10357
sI1151853
I1715
sI1151855
I1198
sI1151857
I1421
sI1151859
I1971
sI1151860
I3232
sI1151862
I2656
sI1151867
I2033
sI1151868
I3068
sI1151869
I1990
sI1151870
I1077
sI1151873
I2706
sI1151875
I1253
sI1151876
I470
sI1151878
I3128
sI1151882
I1895
sI1151883
I1769
sI1151885
I2591
sI103312
I3215
sI103313
I2056
sI1151894
I2005
sI1151895
I2097
sI1151897
I1994
sI103322
I1997
sI1151899
I2123
sI1151900
I2969
sI1151902
I1927
sI1151903
I2058
sI1151904
I2084
sI1151910
I3001
sI1151917
I2878
sI1151918
I3025
sI1151923
I1898
sI1151925
I2085
sI1151928
I2476
sI110068
I2909
sI1151930
I1909
sI1151933
I0
sI103358
I2260
sI103360
I1014
sI1151937
I2000
sI1151940
I3072
sI1151941
I2034
sI1151944
I2095
sI1151948
I2096
sI1151949
I2808
sI1151951
I2245
sI1151956
I1373
sI1151958
I2161
sI103383
I1255
sI110074
I2003
sI103391
I2404
sI1151968
I1812
sI1151969
I1078
sI1151970
I2985
sI1151975
I1743
sI113947
I3193
sI1151977
I2534
sI103402
I829
sI1151979
I3208
sI1151980
I1164
sI1151981
I2017
sI1151982
I1558
sI1151983
I1751
sI1151985
I1166
sI103413
I1465
sI1151992
I2113
sI103417
I2781
sI1151995
I2111
sI1151998
I565
sI1151999
I2398
sI1152003
I3152
sI1152005
I2493
sI1158657
I2904
sI1152008
I1938
sI1152011
I0
sI1152012
I1781
sI1152013
I3856
sI103439
I1899
sI1152019
I3668
sI1152020
I8521
sI1152022
I6642
sI103447
I2526
sI1152027
I6408
sI1152036
I8124
sI110086
I1004
sI1152040
I2760
sI1152043
I3439
sI103470
I2993
sI1152047
I2824
sI1152048
I4385
sI1152050
I5888
sI1152053
I5183
sI1152061
I1057
sI1152062
I3510
sI1152068
I3223
sI1152069
I18837
sI1152072
I3986
sI1152075
I3792
sI1152076
I3361
sI1152079
I378
sI103505
I2920
sI1152083
I942
sI1152084
I3078
sI1152088
I5188
sI1152090
I1896
sI1152092
I2908
sI103517
I2570
sI1152098
I3136
sI1152104
I3029
sI1152107
I2440
sI1152108
I415
sI103537
I3050
sI1152116
I3180
sI1152117
I3813
sI1152122
I4135
sI1152126
I5941
sI1152129
I2303
sI1152130
I3411
sI1152132
I1993
sI1152136
I2774
sI1152141
I2700
sI1152143
I1201
sI1152144
I1451
sI1152146
I332
sI1152147
I4344
sI1152150
I1914
sI1152152
I1009
sI103585
I3127
sI1152163
I1961
sI103588
I2747
sI1152166
I5815
sI1152168
I3011
sI1152169
I2998
sI1152173
I1174
sI1152175
I3400
sI1152176
I3421
sI1152177
I2215
sI1152178
I2260
sI1152179
I1190
sI1152180
I2348
sI1152181
I3592
sI1152184
I6487
sI1152185
I4668
sI103615
I3990
sI1152192
I2004
sI1152195
I5189
sI110114
I3279
sI1152206
I2012
sI103635
I5712
sI1152213
I10033
sI1152216
I11785
sI1152217
I3323
sI1152218
I3392
sI1152222
I1673
sI1152223
I1073
sI1152224
I2067
sI1152225
I3872
sI1152227
I4576
sI1152229
I2980
sI103655
I1187
sI1142311
I3250
sI103664
I2126
sI103666
I3435
sI1152243
I3245
sI103669
I6423
sI103672
I2841
sI103674
I2483
sI1158699
I2008
sI103686
I921
sI1152263
I0
sI103688
I2277
sI103693
I2273
sI103695
I4713
sI1158702
I729
sI1152286
I2114
sI103712
I2191
sI103714
I1344
sI103715
I10645
sI103716
I2976
sI103719
I2530
sI103722
I2332
sI103727
I1363
sI103732
I4392
sI103733
I1592
sI103734
I3678
sI110132
I2242
sI103749
I4112
sI103753
I5070
sI103758
I3712
sI103760
I2000
sI103761
I3889
sI103762
I2062
sI103763
I0
sI110137
I1460
sI103768
I1362
sI103772
I1500
sI103775
I1971
sI103777
I3251
sI103779
I2075
sI103780
I4306
sI103781
I1232
sI1152358
I1998
sI103786
I2118
sI103790
I6349
sI1152367
I2890
sI103792
I995
sI103793
I996
sI103794
I2002
sI103798
I5341
sI1152375
I2100
sI103803
I2215
sI103806
I2591
sI103809
I2865
sI103810
I1954
sI103811
I2585
sI1152395
I2919
sI103821
I2242
sI103823
I4302
sI103824
I2611
sI103827
I2884
sI103836
I3486
sI103839
I2144
sI103844
I1621
sI1152424
I2781
sI1152427
I3109
sI1152431
I3250
sI1152433
I1079
sI103858
I3817
sI103859
I2952
sI103860
I1992
sI103863
I3924
sI103864
I1884
sI104692
I3734
sI103867
I2167
sI77386
I9430
sI1152449
I5312
sI1152450
I1144
sI103875
I3199
sI1152452
I1195
sI103877
I1050
sI1152454
I4667
sI1152460
I2710
sI110157
I1986
sI103889
I909
sI1152468
I3420
sI103895
I13347
sI1152474
I2029
sI1152477
I1022
sI1152478
I2972
sI103905
I2000
sI103909
I2000
sI103912
I2885
sI1152489
I2743
sI1152491
I2111
sI1152493
I3286
sI103920
I2653
sI1152498
I4035
sI103926
I2944
sI103927
I2189
sI103929
I2992
sI103931
I2001
sI103935
I2096
sI103936
I2111
sI1152529
I2002
sI1152532
I3983
sI1152533
I3052
sI1152535
I1992
sI1152537
I3984
sI103964
I2982
sI103967
I2657
sI103970
I1992
sI103972
I1987
sI103974
I2996
sI103978
I2580
sI103981
I3416
sI1152558
I3214
sI2135599
I1992
sI103985
I2140
sI103990
I4005
sI103992
I6943
sI103995
I2094
sI103997
I2010
sI1152574
I1086
sI104003
I2996
sI1152583
I5623
sI1152584
I3849
sI104009
I2989
sI104011
I3072
sI104016
I3222
sI104018
I6423
sI104033
I2910
sI104037
I2002
sI104039
I2889
sI104042
I2913
sI104044
I1083
sI104045
I2002
sI104046
I1994
sI104047
I4062
sI1152625
I3029
sI104050
I4019
sI104056
I2073
sI1152634
I7993
sI2135675
I2992
sI104064
I3388
sI104065
I2154
sI104067
I1995
sI104068
I1000
sI104073
I2761
sI104074
I2002
sI104075
I1160
sI104077
I1996
sI104078
I3071
sI104081
I2111
sI104083
I2078
sI110190
I1407
sI104086
I1994
sI104087
I2988
sI104088
I1988
sI104090
I3917
sI104091
I1988
sI104093
I2002
sI2135714
I2086
sI104099
I1111
sI104100
I2043
sI104101
I2077
sI104102
I1995
sI104103
I2879
sI1152683
I2078
sI104109
I2071
sI104111
I1243
sI104112
I2052
sI104113
I2034
sI1152693
I6620
sI1152694
I2060
sI1152696
I1984
sI1152699
I2907
sI104125
I4785
sI104127
I8161
sI104129
I2749
sI104131
I1344
sI2135748
I2687
sI104135
I2001
sI104136
I3079
sI2135755
I2846
sI104141
I2988
sI1152720
I1585
sI104145
I994
sI104148
I2727
sI104151
I3007
sI1152728
I1795
sI104153
I2988
sI104154
I1988
sI1152733
I2949
sI104162
I3024
sI104164
I2872
sI1152742
I1905
sI104168
I1992
sI104170
I3568
sI104173
I2982
sI104174
I8367
sI104176
I2002
sI104178
I2115
sI104179
I2077
sI104181
I1991
sI1152759
I2554
sI104185
I2851
sI104187
I1989
sI104189
I2563
sI1152768
I2730
sI2135813
I3960
sI104198
I1882
sI104199
I2058
sI104207
I5337
sI104209
I4115
sI104211
I2147
sI104213
I1891
sI1152790
I2820
sI104215
I2281
sI104219
I1988
sI104220
I3651
sI104224
I2988
sI104225
I3190
sI104227
I1366
sI1152804
I6097
sI104229
I4364
sI1152806
I3104
sI1152810
I2340
sI93831
I2994
sI104237
I2055
sI104239
I2869
sI104240
I2450
sI104241
I1953
sI1152818
I2743
sI104244
I3891
sI104247
I3742
sI104251
I2780
sI104256
I3095
sI104257
I3792
sI104262
I2166
sI104264
I3086
sI104265
I2925
sI1152845
I2994
sI1152846
I3899
sI104271
I1717
sI2135891
I3774
sI104281
I2971
sI1152858
I3113
sI104285
I2160
sI104286
I4816
sI104287
I2035
sI104289
I918
sI1152869
I2885
sI104297
I7700
sI1152874
I1576
sI104300
I2913
sI104308
I3966
sI1152886
I4889
sI104314
I1988
sI104315
I1988
sI1152892
I1325
sI104317
I2661
sI104320
I10982
sI104323
I4430
sI104324
I2113
sI104325
I4970
sI104331
I3584
sI1152908
I2077
sI104333
I3045
sI93848
I492
sI104338
I2982
sI104339
I4217
sI104341
I2281
sI104343
I1937
sI104344
I1787
sI104345
I1661
sI104350
I3073
sI2135969
I3150
sI1152931
I0
sI1152932
I2161
sI104363
I3808
sI104368
I3417
sI1152950
I1635
sI1152954
I994
sI1152958
I3893
sI1152959
I1478
sI104384
I1911
sI1152961
I2111
sI104386
I1363
sI104391
I2972
sI1152971
I4006
sI104399
I4113
sI104400
I2078
sI104401
I1001
sI104403
I3147
sI104405
I2994
sI104407
I4953
sI104409
I1083
sI104410
I3107
sI104411
I2982
sI104414
I2901
sI104415
I1001
sI104416
I2892
sI104418
I994
sI104420
I994
sI104421
I6245
sI104425
I3079
sI104429
I1796
sI104431
I1988
sI104432
I8433
sI104436
I3045
sI104439
I2647
sI1153016
I2994
sI104443
I1784
sI104446
I1896
sI104448
I2083
sI104452
I2111
sI104453
I2807
sI104456
I5324
sI104459
I2994
sI104460
I1889
sI104463
I2794
sI104464
I918
sI104466
I1341
sI104474
I3824
sI104475
I2608
sI104478
I3880
sI104481
I2013
sI104486
I1527
sI1153066
I3448
sI104497
I1988
sI104500
I3385
sI1153078
I2800
sI1153083
I1565
sI104508
I1447
sI104509
I2071
sI104510
I3446
sI1153088
I1932
sI104513
I2008
sI104514
I2883
sI104519
I2907
sI104520
I2072
sI104523
I1994
sI104524
I1124
sI104525
I1004
sI104527
I1994
sI104529
I1970
sI104531
I3966
sI104533
I1988
sI104538
I2071
sI104539
I2003
sI1153116
I1822
sI104541
I2008
sI104543
I3910
sI1153123
I1114
sI104551
I1995
sI1153128
I2114
sI104554
I2008
sI1153131
I2001
sI1153132
I2166
sI104558
I2803
sI104559
I994
sI104560
I3085
sI104561
I2002
sI104564
I3047
sI104566
I1111
sI104568
I2003
sI104569
I1111
sI104570
I2004
sI104572
I3000
sI104576
I2234
sI104577
I2901
sI104578
I2072
sI104581
I1000
sI104583
I3071
sI104586
I3961
sI104589
I2501
sI104591
I2499
sI104592
I2254
sI104593
I4791
sI104595
I3076
sI104597
I2775
sI104598
I2002
sI104599
I1995
sI104602
I994
sI104603
I2071
sI104605
I2001
sI104607
I2996
sI104608
I893
sI104609
I2966
sI104610
I1077
sI104612
I1000
sI104617
I1000
sI104618
I1334
sI104620
I2406
sI104622
I2115
sI104623
I2004
sI104626
I1350
sI104628
I1267
sI104629
I2991
sI104632
I2052
sI104634
I1743
sI104635
I2000
sI104636
I1083
sI104639
I994
sI104640
I2065
sI104641
I2154
sI1153218
I1083
sI104644
I1901
sI104645
I1778
sI104646
I2044
sI1153223
I1077
sI104650
I2857
sI104651
I4165
sI104654
I2990
sI104655
I1177
sI104659
I2319
sI104660
I3058
sI104662
I3247
sI104663
I2761
sI104665
I1988
sI104666
I2672
sI104669
I2308
sI104671
I1884
sI104672
I2732
sI104674
I1995
sI104677
I2135
sI104678
I1988
sI104679
I1076
sI104681
I1000
sI1153259
I993
sI104686
I2390
sI104687
I439
sI104689
I1735
sI104690
I916
sI1153268
I1665
sI104694
I693
sI1127350
I2654
sI104698
I2238
sI104700
I0
sI104701
I5243
sI104703
I2424
sI104705
I1883
sI104708
I1008
sI104709
I1038
sI104710
I2070
sI104711
I2067
sI104713
I2058
sI104716
I971
sI104717
I2994
sI104719
I4364
sI104720
I2121
sI104723
I3113
sI104724
I2006
sI104728
I3019
sI104730
I2565
sI104732
I3545
sI104733
I3316
sI1153313
I3043
sI104739
I3969
sI104742
I868
sI104743
I2318
sI104747
I4356
sI104750
I1819
sI1153333
I940
sI1153335
I1616
sI1153336
I854
sI1153338
I2202
sI104763
I1338
sI109328
I1967
sI1153344
I2237
sI1153346
I881
sI104772
I1889
sI1153354
I3084
sI104790
I2538
sI104793
I1945
sI104795
I741
sI1153372
I1324
sI104798
I1778
sI104799
I1000
sI104801
I4579
sI104808
I3260
sI104809
I2628
sI104812
I1990
sI104813
I2154
sI104814
I1115
sI104815
I1994
sI104816
I2015
sI104819
I1889
sI104820
I2987
sI104822
I2070
sI104825
I893
sI104827
I1082
sI104828
I2126
sI104829
I2003
sI104830
I3526
sI104832
I2726
sI104834
I2004
sI104835
I2154
sI104838
I2279
sI104840
I2166
sI104846
I607
sI104848
I2353
sI104849
I2212
sI104853
I2215
sI104855
I2002
sI104857
I2994
sI1153436
I4407
sI1153440
I2994
sI1153442
I3070
sI104867
I4815
sI1153447
I4427
sI104873
I3065
sI1153450
I2113
sI1153451
I2083
sI104876
I994
sI1153454
I2995
sI104879
I1306
sI104885
I2000
sI1153462
I1265
sI1153465
I1930
sI1153468
I1149
sI1153470
I0
sI1153471
I2019
sI104897
I1832
sI1153476
I1865
sI1153478
I1968
sI104903
I1355
sI1153480
I1744
sI104906
I3967
sI104909
I4650
sI1153492
I2071
sI104919
I1999
sI1153496
I2925
sI104923
I2221
sI1153501
I4787
sI1153502
I1995
sI104927
I1000
sI104930
I4083
sI104931
I2111
sI1153508
I1992
sI1153510
I2000
sI104936
I2618
sI1153513
I2598
sI104941
I2201
sI104945
I3003
sI104949
I1077
sI104952
I3077
sI1153529
I2994
sI1153530
I2111
sI1153531
I2071
sI104963
I2994
sI1153540
I994
sI1153541
I1988
sI1153542
I1988
sI104969
I2077
sI104970
I3071
sI104971
I2988
sI1153552
I2878
sI104981
I2229
sI104982
I2223
sI104983
I2071
sI1153560
I2996
sI1153564
I3024
sI1153565
I1988
sI1153567
I1891
sI1153570
I3066
sI1153571
I1989
sI1153572
I3908
sI104999
I2077
sI1153578
I4071
sI105003
I2111
sI105005
I2000
sI1153584
I3142
sI2136626
I4953
sI105011
I1000
sI2136630
I6778
sI105015
I2111
sI1153592
I2241
sI105017
I1865
sI1153594
I2994
sI1153595
I2899
sI1153596
I1566
sI1153597
I1414
sI1153598
I912
sI1153601
I3455
sI1153603
I580
sI1153609
I3711
sI1153613
I3414
sI1153614
I1989
sI1153617
I4627
sI1153619
I2996
sI1153622
I2072
sI105047
I2072
sI1153624
I2002
sI105053
I4556
sI1153633
I1826
sI1153634
I1001
sI1153636
I2966
sI105061
I1988
sI1153640
I3865
sI104892
I1114
sI1153644
I2243
sI105074
I4610
sI1153651
I5261
sI1153657
I3391
sI105082
I2780
sI104895
I1303
sI1153660
I1548
sI1153663
I3524
sI1153665
I2883
sI1153666
I1993
sI1160127
I2420
sI105098
I3054
sI105099
I994
sI105100
I1948
sI105102
I2778
sI1153680
I4019
sI1153685
I2002
sI1153686
I1780
sI1153687
I2111
sI1153690
I2906
sI1153691
I2249
sI105116
I2894
sI1153695
I2658
sI105123
I2002
sI1153702
I4060
sI105129
I2222
sI1153706
I2614
sI105131
I1212
sI1153711
I2446
sI1153712
I2000
sI105144
I2076
sI105147
I2166
sI105148
I1077
sI1153725
I994
sI1153726
I1994
sI1148021
I4239
sI105153
I1998
sI1153730
I2349
sI105156
I2645
sI105157
I1669
sI1153737
I1887
sI105162
I3010
sI105163
I1994
sI1153740
I2238
sI105166
I1782
sI105171
I1912
sI105172
I3444
sI105174
I861
sI105180
I1995
sI105181
I2981
sI105182
I2423
sI105187
I3367
sI105190
I3458
sI105191
I1552
sI1153776
I2000
sI1153778
I1994
sI1153779
I1077
sI1153780
I994
sI105206
I3031
sI1153783
I2582
sI1153784
I2982
sI1153785
I2632
sI105210
I2994
sI1153789
I3996
sI1153790
I1905
sI1153794
I2889
sI1153795
I2502
sI1153796
I4731
sI1153806
I1988
sI1153807
I3997
sI105232
I2016
sI1153809
I1906
sI1153817
I3079
sI105242
I2975
sI105245
I1001
sI105246
I2071
sI1153824
I994
sI105249
I1988
sI1153826
I1995
sI1153827
I0
sI105252
I912
sI105253
I2914
sI105254
I2932
sI1153832
I1988
sI1153833
I3982
sI105258
I1988
sI1153839
I994
sI105264
I1785
sI1153841
I3113
sI105266
I1891
sI1153844
I3324
sI105269
I3075
sI1153849
I2027
sI105282
I3002
sI105283
I2918
sI105286
I2000
sI1153863
I2865
sI105290
I1798
sI1153867
I1988
sI105292
I277
sI1153872
I2002
sI105298
I1988
sI1153875
I2017
sI105302
I2002
sI105304
I0
sI105309
I2564
sI1153887
I2111
sI105312
I1077
sI105313
I2155
sI1153892
I2325
sI1153894
I1800
sI1153895
I2219
sI105324
I2077
sI108286
I1729
sI105328
I2155
sI1153905
I1419
sI1153906
I3985
sI105331
I1995
sI1153908
I1475
sI1153910
I2010
sI1153912
I2556
sI1153913
I4002
sI1153914
I2000
sI1153915
I6973
sI1153918
I2885
sI1153920
I6199
sI105345
I2004
sI1153923
I1099
sI105348
I3029
sI1153925
I5850
sI105350
I2002
sI1153927
I1893
sI1153928
I1000
sI105354
I4732
sI1153932
I3510
sI105357
I1992
sI1153517
I2312
sI105361
I3969
sI105365
I7558
sI1153945
I2501
sI105380
I3345
sI105382
I2570
sI1153959
I4915
sI1153965
I1989
sI105390
I4417
sI105394
I2078
sI1153971
I3881
sI105397
I8299
sI105400
I3742
sI105403
I3102
sI1153985
I0
sI105410
I829
sI105414
I14613
sI105416
I1669
sI1153993
I1914
sI105419
I3089
sI105423
I2589
sI105427
I1996
sI105429
I2540
sI105435
I2391
sI105438
I2784
sI105439
I1631
sI1154019
I3732
sI105445
I2501
sI1154026
I3213
sI105453
I4173
sI1154038
I2243
sI1154040
I3682
sI1154041
I1786
sI105466
I912
sI105468
I2919
sI105469
I2079
sI105474
I3521
sI105475
I1990
sI1154053
I3747
sI1154054
I2827
sI105480
I2563
sI1154058
I3004
sI1154061
I3984
sI1154063
I2000
sI1154064
I2889
sI105494
I2896
sI94041
I2000
sI1154073
I5048
sI1154076
I3003
sI105507
I2529
sI1154084
I2001
sI105512
I4004
sI105514
I2449
sI1154091
I4002
sI1154097
I782
sI105523
I3227
sI105525
I3342
sI105532
I3061
sI1154109
I2909
sI1154112
I3814
sI105538
I1989
sI105540
I3910
sI1154118
I2562
sI105543
I1474
sI1154123
I1004
sI105548
I1997
sI105550
I1000
sI1154127
I2019
sI105552
I1989
sI105553
I1019
sI1154131
I2914
sI1154133
I3456
sI105560
I2487
sI1154138
I1669
sI1154143
I3986
sI105568
I3008
sI105572
I3946
sI105574
I5372
sI1154151
I832
sI1154152
I2008
sI105580
I1004
sI1154157
I4223
sI105585
I4298
sI1154162
I3093
sI1154164
I2523
sI1154165
I2078
sI105592
I2101
sI1154171
I817
sI1154174
I2080
sI105599
I3233
sI1154178
I3021
sI1154179
I5002
sI1154184
I1997
sI105611
I2909
sI105612
I2993
sI1154192
I2424
sI105617
I2901
sI1154194
I1531
sI1154195
I2003
sI1154197
I2004
sI1154200
I2990
sI105626
I2085
sI94063
I2077
sI1154204
I2073
sI1160115
I2892
sI1154207
I1231
sI1154208
I2162
sI1154210
I2333
sI1154214
I1302
sI1154215
I2879
sI105641
I1947
sI1154219
I2003
sI1154222
I3644
sI105647
I2893
sI105653
I2004
sI1154231
I0
sI105656
I2909
sI105659
I3078
sI1154236
I2912
sI105665
I1778
sI1154242
I2004
sI94070
I1488
sI1154246
I1993
sI105672
I3068
sI1154250
I2990
sI1154254
I2249
sI105679
I2956
sI105680
I2073
sI105683
I4128
sI1154260
I2197
sI1154270
I3535
sI1154272
I3520
sI105700
I3663
sI1154278
I1162
sI1154281
I2002
sI1154284
I2754
sI105712
I2889
sI1154290
I2000
sI1154291
I1913
sI105717
I2594
sI1154296
I1079
sI1154297
I2503
sI1154299
I3081
sI1154301
I2138
sI105727
I1124
sI1154305
I2074
sI105730
I1786
sI105731
I1777
sI105735
I3218
sI105736
I2862
sI1154313
I0
sI1154318
I2496
sI105743
I2110
sI1154321
I1002
sI105747
I3128
sI1154324
I2885
sI105750
I4404
sI1154332
I2996
sI105757
I4213
sI1154334
I2002
sI1154336
I913
sI1154339
I1992
sI1154340
I2569
sI105765
I996
sI1154345
I6080
sI1154346
I4947
sI105771
I3384
sI1153586
I1891
sI105777
I1999
sI1154354
I735
sI105779
I747
sI1154356
I2082
sI1154361
I3031
sI1154362
I2083
sI1154365
I2378
sI105790
I2353
sI105791
I1010
sI1154369
I3141
sI105795
I2661
sI1154372
I837
sI1154373
I5818
sI105800
I3251
sI1154382
I2002
sI105811
I1077
sI105812
I2983
sI1154389
I1891
sI105815
I1907
sI1154392
I1990
sI105821
I2886
sI1154400
I3992
sI1154404
I2985
sI1154405
I2997
sI1154411
I4586
sI105839
I3909
sI1154416
I2919
sI105842
I3080
sI1154419
I2072
sI1154422
I2997
sI1154426
I3066
sI105851
I2985
sI1154428
I1083
sI105857
I2111
sI1154434
I1083
sI1154435
I1913
sI1154436
I1897
sI105861
I2072
sI1154438
I1083
sI1154440
I2995
sI1154442
I1077
sI1154443
I912
sI1154444
I911
sI105871
I3492
sI1154448
I2355
sI1154449
I995
sI1154452
I6044
sI2137495
I3101
sI1154456
I2495
sI1154460
I5822
sI1154461
I2523
sI1154470
I1913
sI1154472
I2921
sI105897
I4082
sI1154476
I995
sI105901
I2985
sI105902
I2073
sI105905
I2248
sI1154482
I2967
sI105909
I2787
sI105911
I2004
sI1154488
I3003
sI1154491
I2079
sI1154495
I2000
sI1154496
I2992
sI1154497
I4192
sI1154501
I3601
sI1154504
I1562
sI105931
I1161
sI105932
I1556
sI1154509
I3776
sI105935
I1991
sI1154512
I2004
sI1154515
I1907
sI1154516
I2002
sI105941
I3003
sI1154518
I1004
sI1154519
I1936
sI1154520
I2230
sI1154524
I2079
sI1154526
I1001
sI1154528
I3012
sI105953
I1993
sI105959
I1574
sI105961
I3099
sI105965
I3099
sI1154542
I2544
sI1154543
I2903
sI1154544
I1990
sI1154546
I1989
sI1154548
I2314
sI1154551
I1015
sI1154552
I1046
sI105977
I942
sI1154554
I1907
sI1154557
I1108
sI105983
I1912
sI1154562
I2137
sI105989
I2986
sI1154566
I1961
sI1154572
I2912
sI106001
I2103
sI1154578
I3075
sI1154579
I2035
sI1154580
I1077
sI1154581
I3005
sI106009
I2000
sI1154587
I2603
sI106013
I1122
sI1154594
I4482
sI106021
I5306
sI2137639
I3593
sI1154600
I2001
sI1154602
I1995
sI1154604
I3540
sI2137645
I3819
sI1154606
I4604
sI1153629
I2803
sI106032
I3713
sI106033
I5219
sI106037
I3209
sI106038
I2995
sI106040
I1988
sI1154620
I3142
sI106047
I2884
sI106050
I2124
sI106055
I2775
sI1154633
I3073
sI2137675
I2670
sI1154636
I2002
sI1154639
I1849
sI1154640
I2130
sI1154641
I1996
sI1154646
I2990
sI106073
I2428
sI1154652
I995
sI106077
I1166
sI106080
I2330
sI106081
I1001
sI106082
I1077
sI1154659
I2023
sI1154660
I2345
sI106085
I2202
sI1154663
I993
sI1154665
I2891
sI106091
I1114
sI1154668
I1778
sI106093
I4294
sI1154671
I3289
sI1154674
I3300
sI1154677
I3738
sI1154680
I1904
sI106109
I2736
sI1154687
I2657
sI106115
I1593
sI1154693
I4229
sI1154694
I4002
sI1154696
I995
sI1154699
I1668
sI106127
I2442
sI1154704
I2002
sI1154708
I2002
sI1154710
I3068
sI1154711
I3068
sI1154712
I2073
sI1154716
I3078
sI1154717
I1991
sI106145
I3067
sI1154723
I3106
sI1154730
I3127
sI1154731
I2413
sI106157
I2170
sI1154737
I2572
sI1154738
I2654
sI1154740
I1929
sI1154743
I1985
sI106169
I2448
sI1154746
I1990
sI1154748
I2902
sI1154751
I2256
sI1154754
I1750
sI1154758
I1908
sI1154760
I1966
sI1154762
I3000
sI106187
I2827
sI1154766
I2111
sI1154768
I3086
sI1154770
I995
sI106196
I2156
sI1154773
I3015
sI1154776
I1668
sI1154777
I2902
sI1154780
I2912
sI1154783
I995
sI106209
I2914
sI106212
I1996
sI1154790
I1990
sI1154792
I995
sI1154793
I1001
sI106222
I2002
sI106223
I2985
sI106226
I2026
sI106227
I2073
sI106229
I0
sI1154806
I1282
sI1154807
I2781
sI106233
I2002
sI106234
I2004
sI1154812
I1990
sI1154815
I2396
sI106241
I995
sI106242
I1997
sI1154820
I1996
sI1154821
I2002
sI1154822
I2808
sI106247
I1996
sI1154827
I1990
sI1154831
I1217
sI106256
I2113
sI1154833
I2921
sI1154834
I2985
sI1154835
I1778
sI1154838
I2002
sI106265
I996
sI1154842
I3061
sI106267
I2010
sI1154846
I2808
sI1154849
I2086
sI106275
I3003
sI1154852
I889
sI106280
I2213
sI1154857
I2561
sI1154858
I2002
sI106288
I0
sI106289
I1348
sI106291
I1998
sI106295
I1990
sI1154873
I3798
sI106298
I2973
sI94175
I1000
sI106301
I1999
sI106302
I2395
sI106303
I1992
sI106304
I2024
sI106307
I0
sI1154885
I4063
sI106312
I2523
sI106313
I2430
sI1154891
I1062
sI106316
I1667
sI106317
I2987
sI1154894
I1429
sI106320
I1991
sI1154900
I2995
sI1154903
I913
sI106331
I1141
sI1154908
I851
sI1154910
I1964
sI1154912
I2957
sI106339
I1909
sI106340
I913
sI1154918
I1882
sI106343
I2941
sI106344
I1595
sI1154921
I1706
sI106350
I2595
sI1154929
I3885
sI106354
I2391
sI106356
I6994
sI106357
I1047
sI106358
I946
sI106359
I3985
sI106361
I1660
sI106368
I1660
sI1154948
I2085
sI1154949
I5061
sI1154950
I920
sI106376
I2254
sI106378
I1664
sI1154955
I1995
sI1154958
I2118
sI106384
I1788
sI106387
I1333
sI106389
I2104
sI1154968
I2920
sI1154969
I1454
sI1154972
I2992
sI1154973
I2076
sI1154976
I2075
sI1154978
I2922
sI106403
I2454
sI106404
I2397
sI106407
I2955
sI1154984
I1482
sI1154987
I3200
sI106413
I4368
sI1154992
I2893
sI106417
I1916
sI106421
I1610
sI106422
I1900
sI1154999
I3414
sI106425
I0
sI106426
I1079
sI106428
I2002
sI1155005
I2002
sI106433
I3078
sI106435
I2002
sI1155012
I1990
sI106440
I0
sI106441
I2079
sI106443
I2352
sI106445
I2742
sI1155023
I3192
sI106451
I2113
sI1155029
I2305
sI106455
I2931
sI1155035
I2638
sI1155038
I1150
sI1155040
I2905
sI1155044
I2998
sI106469
I3975
sI1155047
I2157
sI106472
I1139
sI1155049
I1162
sI1155052
I2668
sI1155053
I764
sI106478
I1014
sI1155055
I2445
sI106481
I3490
sI1155059
I2016
sI1155060
I1162
sI1155062
I2088
sI106487
I2111
sI1155066
I2161
sI106493
I2079
sI1155071
I2427
sI1155072
I2506
sI111568
I2004
sI1155078
I2824
sI106503
I2073
sI1155080
I2073
sI1155085
I2281
sI1155088
I1000
sI106513
I2459
sI1155092
I1832
sI106521
I3690
sI106523
I445
sI106527
I3669
sI1155112
I2243
sI106537
I2556
sI1155116
I2611
sI106541
I1742
sI1155122
I2736
sI106547
I2739
sI1155124
I1273
sI106553
I2672
sI1155133
I1663
sI106561
I746
sI2138179
I2162
sI1155140
I3133
sI1155142
I2897
sI1155144
I1867
sI1155146
I1023
sI1155148
I2786
sI94221
I2153
sI1155153
I2121
sI1155154
I3178
sI108949
I3110
sI1155156
I2256
sI1155158
I1019
sI1155159
I498
sI106585
I1977
sI1155162
I795
sI106587
I2505
sI1155164
I2684
sI1155170
I2269
sI1155174
I2348
sI1155176
I3082
sI1155178
I2655
sI106605
I1944
sI1155182
I0
sI106607
I0
sI1155184
I2056
sI106609
I2032
sI1155186
I2858
sI106612
I1830
sI105150
I1988
sI106618
I338
sI106622
I2239
sI1155199
I3364
sI1155200
I2418
sI1155203
I2820
sI106628
I1425
sI1155205
I683
sI1155206
I2000
sI106633
I3964
sI1155211
I1091
sI1155212
I3082
sI1155213
I1110
sI106638
I2014
sI106643
I3026
sI106645
I0
sI1155223
I2087
sI108513
I1378
sI106650
I3967
sI106651
I1981
sI1155228
I2509
sI106653
I4250
sI106654
I1132
sI1155233
I2000
sI1155235
I3091
sI106663
I1909
sI1155241
I895
sI1155242
I2431
sI106668
I2143
sI1155245
I1861
sI1155246
I1505
sI106672
I3607
sI1155252
I2887
sI1155258
I0
sI106683
I2920
sI106684
I1617
sI106685
I1768
sI109392
I1436
sI1155265
I827
sI1155269
I2448
sI1155270
I3147
sI106695
I5408
sI106698
I948
sI1155277
I2010
sI106702
I743
sI106703
I1836
sI1155283
I3122
sI106710
I2697
sI1155289
I1058
sI1155290
I1114
sI106721
I2612
sI106723
I5432
sI1155305
I2558
sI1155306
I1222
sI1155310
I1893
sI106741
I1178
sI1155323
I2605
sI106748
I2187
sI1155325
I745
sI1155327
I1570
sI106753
I828
sI106756
I889
sI106757
I2993
sI1155334
I5178
sI1155336
I2097
sI106763
I509
sI1155342
I2246
sI106772
I855
sI1155349
I2846
sI1155353
I845
sI1155354
I1321
sI1155356
I1261
sI106782
I2966
sI1155361
I2050
sI1155363
I3312
sI1155364
I1893
sI1155366
I1780
sI1155370
I1678
sI1155371
I2422
sI106797
I1111
sI1155374
I1759
sI1155375
I1401
sI106800
I1090
sI1155379
I2000
sI1155381
I2047
sI2138422
I3105
sI1155383
I3000
sI1155387
I2233
sI1155390
I2002
sI1155392
I1988
sI1155393
I2082
sI1155397
I26
sI1155398
I2179
sI106826
I2892
sI1155405
I2574
sI1155407
I1856
sI1142840
I3559
sI1155415
I1331
sI106840
I1447
sI1155418
I1821
sI106845
I1563
sI1155423
I1407
sI106848
I1447
sI1155426
I333
sI1155427
I1904
sI1155429
I1030
sI122699
I5325
sI1153767
I1973
sI106860
I893
sI1155438
I2159
sI106864
I1668
sI106867
I2346
sI1155447
I1505
sI106874
I2660
sI1155452
I6279
sI106877
I957
sI1155457
I1993
sI1155464
I3257
sI1155465
I1067
sI1155466
I2737
sI1155470
I3650
sI1155472
I2075
sI1155473
I2075
sI1155477
I1753
sI106903
I2107
sI1155482
I1669
sI1155483
I1988
sI1155484
I2487
sI1155485
I1894
sI106913
I304
sI1155492
I710
sI1155493
I2353
sI1155496
I1554
sI1155497
I917
sI1155499
I1500
sI1155500
I745
sI1155502
I3286
sI1155505
I3956
sI106930
I1466
sI1155512
I1849
sI1155515
I0
sI1155516
I4280
sI106943
I1492
sI1153782
I1911
sI106951
I2951
sI1155528
I1986
sI1155529
I1407
sI1155530
I2736
sI106955
I1332
sI1155532
I3194
sI1155533
I940
sI1155534
I3326
sI106961
I2111
sI106962
I2240
sI1155539
I738
sI106965
I2326
sI106966
I1690
sI1155543
I4693
sI1155544
I1739
sI1155546
I3979
sI1155550
I2996
sI1155551
I1077
sI1155552
I2994
sI1155555
I2550
sI106980
I2084
sI1155560
I2800
sI106985
I0
sI106986
I3044
sI106989
I1010
sI106990
I2889
sI1155568
I2439
sI106994
I3071
sI2138611
I3930
sI107001
I994
sI107004
I2253
sI1155582
I4023
sI1155584
I3055
sI1155587
I1996
sI1155588
I2467
sI1155590
I2006
sI1155591
I2982
sI107017
I2051
sI1155596
I3242
sI107023
I1501
sI107026
I4216
sI107029
I2821
sI1155608
I2319
sI1155609
I3233
sI1155610
I4124
sI107036
I1757
sI107038
I2185
sI107039
I1884
sI107041
I1077
sI1155618
I1490
sI1155623
I3651
sI1155631
I222
sI107056
I5080
sI107057
I1026
sI1155637
I2213
sI1155638
I2923
sI1155640
I2795
sI1155642
I876
sI107067
I2167
sI107070
I4035
sI107072
I1248
sI107079
I4223
sI1155656
I1571
sI1155658
I1325
sI107085
I1231
sI1155662
I452
sI107087
I1412
sI1155665
I2113
sI1155669
I0
sI1155674
I3576
sI107099
I4424
sI1155678
I4683
sI1155679
I2885
sI1153808
I2195
sI107111
I2468
sI1155688
I2661
sI107116
I2802
sI107117
I2000
sI107118
I1274
sI1155700
I1039
sI107125
I1781
sI1155702
I0
sI1155704
I0
sI107129
I1450
sI1155706
I1160
sI1155708
I1556
sI1155710
I1905
sI1155711
I960
sI1155713
I2011
sI1155717
I3595
sI107142
I2010
sI107143
I2911
sI107146
I2418
sI1155723
I7786
sI107149
I1964
sI1155727
I994
sI1155728
I2586
sI1155730
I1930
sI1155733
I2586
sI107159
I2021
sI1155736
I2000
sI107161
I1968
sI107165
I2154
sI107170
I2087
sI1155747
I2231
sI1155751
I2114
sI1155752
I1832
sI1155753
I1065
sI107180
I2667
sI107181
I2191
sI1155760
I1108
sI107185
I1103
sI1155762
I2828
sI107190
I1823
sI1155769
I1640
sI107195
I3227
sI1155773
I1814
sI107198
I2489
sI107200
I2328
sI1155778
I1523
sI107206
I2268
sI1155783
I2799
sI107208
I1254
sI1155786
I2631
sI1155788
I1825
sI105250
I1906
sI1155790
I2115
sI107218
I2216
sI107221
I1566
sI1155803
I1986
sI1155809
I4361
sI1155810
I1700
sI1155812
I2004
sI107237
I1669
sI1155815
I2709
sI1155817
I1111
sI107242
I2626
sI1155820
I555
sI107248
I1225
sI1155825
I2822
sI1155832
I2126
sI1155833
I2616
sI107258
I2508
sI1155835
I2866
sI107263
I1556
sI1155840
I2403
sI1155841
I5000
sI107268
I2106
sI1155846
I1691
sI107272
I1860
sI1155849
I1685
sI1155852
I1236
sI1155853
I868
sI1155856
I1348
sI107282
I2734
sI107283
I414
sI1155860
I2852
sI107286
I1385
sI1155863
I3095
sI1155865
I0
sI1155866
I2358
sI1155868
I2427
sI107295
I2936
sI107297
I1028
sI107299
I2071
sI1155876
I2816
sI107302
I2000
sI107304
I3734
sI1155882
I3906
sI107308
I2077
sI1155885
I1077
sI107310
I995
sI1155887
I3226
sI1155888
I2902
sI1155890
I1990
sI1155891
I2002
sI107317
I2985
sI107321
I2915
sI107322
I2091
sI107323
I489
sI107324
I2481
sI1155902
I445
sI107327
I838
sI1155904
I25
sI107330
I1099
sI107331
I1848
sI107332
I2486
sI1155916
I3066
sI107341
I2969
sI107343
I1990
sI107349
I1997
sI1155926
I2073
sI107351
I1078
sI1155932
I1299
sI1155934
I3068
sI107359
I1233
sI1155936
I2002
sI1155937
I1989
sI107362
I2529
sI107363
I1669
sI1155942
I2039
sI1155943
I919
sI1155944
I2172
sI1155945
I1268
sI1155946
I2551
sI111597
I2907
sI1155948
I2017
sI107378
I1997
sI107379
I1961
sI1155956
I2168
sI107382
I1988
sI1155963
I2020
sI107388
I1556
sI107389
I2047
sI107391
I2803
sI1155968
I2575
sI1155970
I0
sI107395
I2113
sI1155973
I1889
sI107400
I1278
sI107401
I1809
sI107403
I2469
sI1155983
I2494
sI1155986
I1956
sI1155989
I1393
sI1155996
I1760
sI107423
I746
sI1156002
I2221
sI1156004
I778
sI1153862
I2118
sI107432
I1996
sI1156009
I1896
sI107437
I1004
sI1156014
I3740
sI1156017
I802
sI1156021
I1990
sI1156022
I1747
sI107447
I1979
sI1156024
I1032
sI1156027
I2822
sI1156036
I2057
sI107462
I2107
sI1156039
I1584
sI107468
I2787
sI107470
I2453
sI1156048
I2004
sI107473
I2665
sI107474
I1353
sI107475
I2152
sI1156053
I2000
sI107478
I2002
sI107482
I0
sI1156059
I1990
sI107485
I1901
sI1156063
I2002
sI107488
I1998
sI107491
I2889
sI107497
I1998
sI1156074
I3019
sI1156076
I2060
sI1156078
I2899
sI1156083
I2196
sI1156084
I2467
sI1156086
I3510
sI107512
I1109
sI107515
I2079
sI1156092
I2007
sI107517
I1004
sI107518
I1052
sI1156096
I3230
sI1156099
I995
sI107525
I3108
sI1156103
I2002
sI1156108
I0
sI1156109
I2214
sI107535
I1402
sI1156112
I1031
sI107540
I1442
sI1156118
I3253
sI1156119
I4034
sI1156124
I995
sI107549
I2462
sI1156126
I2058
sI1156129
I2911
sI1156132
I1159
sI107557
I1689
sI1156138
I2921
sI1156141
I1894
sI1156142
I166
sI1156144
I2259
sI1156145
I429
sI1156148
I2005
sI1156152
I1584
sI1156153
I2043
sI1156156
I2581
sI1156160
I5778
sI1156162
I4210
sI1156169
I2747
sI1156170
I2002
sI1156177
I2486
sI1156179
I8436
sI107605
I2889
sI1156182
I2721
sI1156186
I1895
sI107611
I2134
sI1156190
I2101
sI1156192
I2002
sI107618
I2985
sI107620
I1011
sI1156197
I1943
sI1156198
I2000
sI1156200
I2200
sI107626
I144
sI1156203
I2590
sI107628
I2115
sI107630
I2673
sI107632
I2389
sI1156210
I2817
sI107636
I2145
sI1156216
I2170
sI107644
I2273
sI1156224
I3395
sI1156231
I3391
sI107657
I5673
sI1156234
I3108
sI1156236
I2549
sI107662
I1506
sI1156239
I1891
sI1156240
I2663
sI1156241
I2680
sI107666
I789
sI107667
I2779
sI1156245
I3320
sI107670
I2574
sI1142980
I1879
sI1156250
I2709
sI107677
I2076
sI1156256
I1862
sI1156257
I1889
sI1156259
I2221
sI1156260
I4433
sI1142982
I999
sI1156263
I1669
sI107691
I2639
sI107693
I2016
sI1156271
I805
sI1156273
I2001
sI1156274
I1773
sI107699
I1907
sI1142985
I1009
sI107704
I0
sI107705
I1995
sI1156282
I1889
sI107707
I1001
sI1156284
I2206
sI1142986
I2993
sI1156291
I3581
sI1156296
I2920
sI2139337
I3249
sI1156298
I1997
sI1156302
I1011
sI1156305
I2002
sI1156306
I470
sI107732
I1854
sI1156310
I1925
sI1156311
I1992
sI107736
I2929
sI2139355
I2393
sI1156318
I1629
sI107743
I1990
sI2139361
I4860
sI107748
I1907
sI1156327
I3026
sI1156330
I2848
sI1156333
I2890
sI1156335
I2099
sI107760
I3010
sI107761
I3494
sI107762
I1915
sI2139379
I1455
sI1156342
I1990
sI1156345
I2000
sI1156347
I4080
sI1142998
I3669
sI1156359
I1088
sI107785
I2986
sI1156362
I1976
sI1156363
I3285
sI107788
I1002
sI107789
I996
sI1156367
I2626
sI1156368
I1908
sI1156369
I2000
sI1156371
I1063
sI2139415
I1574
sI1156377
I2527
sI107804
I3073
sI1156382
I3327
sI1156384
I1988
sI1156392
I944
sI105351
I2004
sI107820
I4486
sI1156397
I3003
sI107827
I1000
sI1156406
I4736
sI1156408
I2055
sI107833
I4076
sI1156414
I5096
sI107839
I3500
sI107842
I5878
sI107844
I2529
sI1143009
I2412
sI107848
I3924
sI1156429
I1884
sI1156430
I1959
sI1156432
I3052
sI1156435
I3828
sI1156437
I332
sI1156439
I3778
sI1156440
I2918
sI1156446
I2158
sI1156447
I1991
sI1156448
I1998
sI1156453
I1085
sI1156455
I3103
sI1156456
I2119
sI1156458
I3516
sI1156459
I1997
sI1156460
I1826
sI1156462
I2304
sI1156467
I3090
sI2139511
I1603
sI1156473
I5707
sI2139517
I1965
sI1153941
I1083
sI1156480
I2000
sI1156483
I3002
sI107909
I3888
sI1156487
I1234
sI107914
I1079
sI107915
I1889
sI1156492
I2599
sI2139535
I2500
sI1156497
I2002
sI1156498
I2002
sI1156503
I3443
sI107930
I2995
sI2139547
I889
sI1156509
I2342
sI107939
I5008
sI107941
I2004
sI1156519
I3077
sI1156520
I1912
sI107945
I2032
sI107947
I3077
sI107948
I1245
sI1156526
I1510
sI1156527
I1660
sI1156528
I2532
sI1156530
I1577
sI1143027
I1986
sI107956
I1891
sI1156533
I2660
sI107959
I1002
sI1143028
I2075
sI1156539
I3031
sI1156543
I0
sI107969
I1079
sI1156546
I2002
sI1156547
I1998
sI1156548
I1915
sI2139589
I2002
sI1156551
I1447
sI107977
I1014
sI107979
I1889
sI1156556
I1967
sI1156557
I2001
sI1156561
I2224
sI1156562
I2902
sI1156565
I1069
sI107991
I1335
sI107992
I1002
sI1156569
I2782
sI1156570
I2922
sI1156571
I0
sI107996
I2326
sI107998
I2117
sI1156575
I996
sI1156576
I1958
sI1156577
I2983
sI1156578
I3438
sI1156581
I2118
sI1156583
I2829
sI1156585
I1257
sI108010
I4386
sI1156587
I2212
sI1156589
I2663
sI1156590
I6896
sI1156596
I4856
sI108021
I3026
sI1156600
I3806
sI2139643
I1990
sI108030
I1999
sI108033
I372
sI1156612
I3102
sI108038
I3778
sI1143041
I2799
sI108041
I6487
sI108042
I3164
sI108044
I2158
sI108045
I3071
sI108049
I1083
sI108052
I2178
sI108054
I2740
sI1156635
I3987
sI108060
I1619
sI1156637
I2556
sI108064
I17954
sI108066
I509
sI1156643
I2322
sI108074
I3357
sI1156655
I1575
sI1156661
I0
sI1156663
I3863
sI1156668
I0
sI108096
I2716
sI1156691
I2900
sI108116
I3113
sI108123
I2705
sI108130
I2199
sI1156728
I9389
sI108155
I4218
sI1156733
I5869
sI1156736
I5659
sI108172
I3586
sI108175
I3354
sI108177
I340
sI1156754
I2074
sI1156757
I2927
sI1156759
I1053
sI1156760
I1579
sI108186
I2907
sI108187
I14741
sI1156765
I1561
sI108190
I2001
sI108193
I3874
sI1156772
I3227
sI1156775
I3113
sI108202
I2930
sI1156779
I5391
sI108204
I2692
sI1156782
I1704
sI1156783
I2895
sI1153992
I3216
sI2139829
I3073
sI108215
I580
sI108216
I3315
sI108218
I2136
sI108219
I0
sI108221
I2732
sI1156799
I5242
sI1156801
I2929
sI1156805
I2896
sI2139847
I3520
sI108232
I2552
sI108235
I2909
sI1156814
I3093
sI108239
I8301
sI1156816
I4561
sI1156818
I3411
sI110883
I1327
sI108244
I965
sI108246
I720
sI1156824
I2535
sI1156825
I581
sI108254
I3430
sI1156833
I5227
sI108262
I1084
sI108268
I1122
sI1156845
I7448
sI108276
I1067
sI108278
I2199
sI108281
I3187
sI108284
I2735
sI1156861
I1688
sI1156862
I1992
sI108287
I1131
sI108288
I805
sI108290
I1488
sI108291
I1125
sI108293
I2070
sI108299
I3017
sI108305
I3832
sI1156883
I917
sI108309
I1816
sI108314
I1257
sI1156891
I1243
sI1156892
I1849
sI1156899
I0
sI1156901
I1075
sI1156906
I3646
sI1156907
I993
sI1156910
I3833
sI1156918
I1641
sI108343
I2266
sI108345
I2096
sI108346
I1187
sI1156927
I5433
sI1156930
I1763
sI108357
I2256
sI108359
I6375
sI108364
I3043
sI1156947
I2028
sI1156959
I2410
sI108391
I0
sI1156973
I365
sI1156974
I474
sI1156975
I196
sI108401
I6829
sI108402
I2603
sI1156983
I4692
sI108408
I2167
sI1156985
I3936
sI108410
I2118
sI108411
I4138
sI1156989
I3120
sI1156990
I2838
sI1156992
I0
sI108417
I2272
sI1156994
I1068
sI108419
I919
sI108420
I1936
sI108421
I2735
sI1156999
I1563
sI1157002
I2032
sI108429
I4305
sI1157007
I2068
sI108432
I2027
sI1157009
I2523
sI1157012
I2115
sI108438
I2065
sI1157015
I1795
sI108441
I3056
sI1157020
I2852
sI108447
I3879
sI1157024
I1991
sI1157026
I2811
sI1143110
I2987
sI108458
I2126
sI108461
I3659
sI1157039
I2783
sI1143112
I3309
sI1157042
I3030
sI1157043
I3081
sI1157044
I2000
sI1157045
I1988
sI108470
I2094
sI108471
I2979
sI108472
I915
sI1157052
I2397
sI108477
I2007
sI1157054
I1079
sI108483
I1994
sI1157060
I1792
sI1157061
I2063
sI1157063
I1601
sI1157065
I1358
sI105464
I4324
sI1157075
I1433
sI108500
I1574
sI1157080
I2192
sI1157081
I1993
sI108507
I2443
sI108511
I667
sI1157089
I2064
sI1157090
I2372
sI1157091
I3994
sI1157092
I2164
sI1157093
I3711
sI2140135
I1532
sI2140136
I8252
sI1157099
I2886
sI1157100
I1936
sI108525
I2071
sI1157103
I0
sI108528
I2767
sI1157105
I1723
sI1157106
I3083
sI1157108
I4033
sI1157111
I1107
sI108536
I672
sI2140153
I2036
sI1157114
I2023
sI108540
I1867
sI2140159
I1274
sI1157121
I2187
sI1157123
I1569
sI108549
I2480
sI1157127
I3332
sI1157128
I1397
sI108554
I3044
sI108555
I0
sI1157133
I556
sI108558
I1802
sI1157135
I1519
sI108561
I1016
sI1157142
I1159
sI108567
I3061
sI1157144
I3015
sI1157145
I0
sI108570
I1156
sI108571
I2421
sI1157148
I2268
sI1157151
I1281
sI1157153
I4119
sI105478
I1989
sI1157158
I2539
sI108583
I1458
sI1157160
I1884
sI1157163
I2761
sI108590
I1739
sI108591
I2556
sI108593
I445
sI1157172
I3803
sI110942
I2002
sI1157174
I2508
sI108600
I3478
sI1157177
I1799
sI108604
I3002
sI1157181
I2249
sI1157187
I1656
sI108612
I1786
sI1157192
I2879
sI108617
I998
sI1157194
I1000
sI1157195
I4070
sI1157200
I889
sI108627
I3674
sI1157204
I3012
sI1157206
I2018
sI1157211
I2989
sI1157212
I1790
sI108639
I2080
sI1157216
I2029
sI105488
I2072
sI1157218
I3278
sI1157219
I2920
sI1157222
I3196
sI1157224
I2481
sI108650
I2081
sI1159527
I2863
sI1157228
I1592
sI108654
I4865
sI1157232
I939
sI2140273
I778
sI108658
I2121
sI1157235
I0
sI1157236
I277
sI1157238
I1574
sI108663
I3248
sI1157241
I1578
sI1157243
I2460
sI108669
I2467
sI1157247
I2877
sI1157249
I2055
sI1157250
I2059
sI1157252
I0
sI1157253
I969
sI1157254
I1956
sI1157255
I3333
sI108680
I2820
sI108681
I1963
sI1157258
I2719
sI105495
I1893
sI130190
I4045
sI108687
I2551
sI108691
I6121
sI108692
I2251
sI108693
I3434
sI108694
I2727
sI1157271
I2171
sI1157273
I4732
sI1157276
I2130
sI108708
I2172
sI1157285
I1053
sI1157288
I3203
sI105500
I2989
sI1157291
I1667
sI110962
I4446
sI1157295
I3605
sI108721
I1891
sI108723
I3060
sI1157303
I2858
sI1157306
I2028
sI108733
I1889
sI1157310
I2325
sI1157312
I2392
sI1157313
I2663
sI1157315
I2025
sI1157316
I991
sI108743
I1769
sI108748
I4065
sI1157327
I2074
sI1157328
I1065
sI108753
I3290
sI108755
I2508
sI108757
I2814
sI1157336
I3383
sI1157338
I1608
sI1157341
I2097
sI108768
I729
sI108771
I5806
sI1157350
I4630
sI1157352
I2130
sI108778
I2009
sI1157358
I4099
sI108784
I1783
sI1157361
I1669
sI1157363
I1983
sI1157364
I1333
sI108791
I1939
sI1157370
I2000
sI108795
I1995
sI1157372
I2622
sI108797
I2460
sI1157376
I2880
sI108803
I2315
sI108807
I7323
sI108811
I2555
sI108813
I4549
sI108814
I0
sI110055
I3362
sI1157392
I7773
sI108819
I1321
sI108822
I2109
sI1157399
I1563
sI1157400
I844
sI108825
I1801
sI108827
I2467
sI1157404
I1294
sI108829
I967
sI1157406
I2715
sI108832
I1700
sI1157409
I2060
sI108835
I1989
sI108838
I2864
sI108840
I1375
sI1157418
I2064
sI1157421
I1062
sI1157422
I3709
sI108849
I2997
sI1157428
I1611
sI108855
I3419
sI108858
I2135
sI1157436
I2849
sI108861
I4682
sI1157439
I2859
sI1157442
I1433
sI1157446
I1656
sI108872
I2871
sI108874
I4646
sI1157451
I3445
sI1157454
I0
sI108879
I2918
sI108885
I1086
sI1157463
I3138
sI1157465
I1253
sI76122
I1746
sI108891
I3654
sI76125
I5042
sI76128
I1843
sI108897
I5878
sI108898
I3747
sI76133
I1911
sI108904
I2792
sI1157481
I938
sI1157484
I1501
sI108910
I1670
sI1157487
I2178
sI1157489
I1849
sI108915
I3768
sI1157493
I2854
sI108918
I1625
sI108922
I2135
sI108923
I1741
sI1157500
I1982
sI1157501
I2532
sI1157502
I0
sI1157504
I796
sI1157506
I1900
sI108931
I2913
sI1157508
I1982
sI108934
I0
sI108935
I5106
sI1157514
I2604
sI1157518
I3082
sI108947
I9420
sI76181
I1982
sI76182
I1903
sI76183
I7434
sI1157528
I3065
sI1157532
I3387
sI2140573
I2000
sI76190
I7137
sI108959
I1859
sI108960
I3762
sI76193
I8634
sI76194
I0
sI108963
I4028
sI108964
I1911
sI76199
I4211
sI108968
I3687
sI76202
I38450
sI1124779
I17810
sI1157548
I4599
sI1157550
I1091
sI1157552
I3895
sI2140595
I2224
sI108981
I1822
sI108982
I2065
sI76216
I6342
sI1157561
I1406
sI130200
I4146
sI108987
I1934
sI76220
I4819
sI108989
I2065
sI1157566
I2291
sI108993
I2065
sI1157572
I3699
sI1157574
I3859
sI108999
I2065
sI109000
I2071
sI109001
I2724
sI1157578
I2072
sI1157582
I2795
sI1157583
I2799
sI1157585
I2000
sI93807
I4114
sI109011
I1465
sI109012
I2659
sI1157590
I2920
sI1157592
I889
sI109019
I2070
sI1157596
I3249
sI109021
I3984
sI109024
I2071
sI1157601
I3818
sI1157604
I3113
sI1157607
I3437
sI1157610
I4699
sI109035
I3458
sI1157613
I2834
sI1157616
I1079
sI109041
I3064
sI109046
I4645
sI1157625
I4481
sI1157626
I3004
sI109053
I3759
sI109054
I2909
sI109058
I1997
sI109064
I3049
sI109066
I2650
sI1157643
I5669
sI109074
I2182
sI1157655
I1912
sI109080
I3595
sI109082
I1410
sI1157661
I1992
sI1157662
I2232
sI1143216
I2002
sI109091
I2714
sI1157669
I2753
sI2140711
I2020
sI1157672
I2567
sI109097
I1655
sI109098
I3394
sI2140717
I3631
sI1157682
I2889
sI94643
I2111
sI1157684
I3509
sI109111
I2656
sI105567
I3781
sI1157692
I2758
sI109117
I1336
sI1157696
I1056
sI109121
I1960
sI109122
I1000
sI1157700
I2031
sI109129
I2934
sI1157706
I1974
sI109131
I2980
sI109132
I2043
sI109133
I3006
sI1157711
I2943
sI109137
I2956
sI109141
I2787
sI1157722
I2023
sI1157723
I2976
sI109149
I1018
sI109150
I3913
sI1157727
I3964
sI109153
I1983
sI1157730
I2077
sI109155
I2069
sI1157732
I2076
sI1157734
I991
sI109161
I2111
sI1157740
I991
sI109165
I3570
sI109167
I1893
sI1157745
I991
sI109171
I2111
sI109172
I2974
sI109174
I1994
sI1157751
I597
sI1157752
I2909
sI109178
I1893
sI109179
I2115
sI1157757
I3104
sI1157758
I2113
sI1157761
I4352
sI1157763
I1817
sI1157764
I2651
sI109190
I2639
sI1157772
I3373
sI109197
I3878
sI109201
I3207
sI1157778
I3228
sI109205
I2910
sI109208
I1563
sI1157786
I1982
sI1157788
I2383
sI1157791
I1423
sI109217
I2097
sI1157795
I2299
sI109220
I3576
sI109221
I968
sI1157799
I344
sI109224
I2780
sI1157801
I1786
sI1157802
I2152
sI109227
I2000
sI109230
I3721
sI1143240
I2968
sI109234
I4251
sI1157830
I1600
sI109256
I1769
sI109258
I3437
sI109263
I1573
sI109264
I1652
sI1157841
I1334
sI109266
I1767
sI109267
I1734
sI1157847
I2500
sI109276
I4190
sI109278
I2670
sI109282
I2667
sI109285
I4922
sI109288
I1904
sI109289
I1583
sI109290
I2607
sI109291
I1405
sI109294
I2189
sI109300
I2397
sI1157877
I1266
sI109305
I2335
sI109306
I1006
sI76540
I2270
sI109309
I1678
sI109310
I2575
sI109312
I2480
sI76545
I8078
sI109314
I966
sI109315
I2425
sI109317
I1675
sI109320
I1983
sI109321
I2333
sI1157901
I2664
sI109326
I1730
sI1125136
I6046
sI109329
I2900
sI1125138
I2242
sI1157907
I3877
sI109338
I2778
sI109340
I2335
sI76574
I4878
sI76576
I3658
sI76577
I8177
sI109346
I670
sI109348
I2671
sI76581
I1239
sI109350
I1452
sI109351
I2000
sI109356
I2004
sI109357
I2337
sI109358
I3093
sI109360
I2001
sI109362
I2011
sI109365
I401
sI109369
I1559
sI109370
I2265
sI109371
I2022
sI109372
I1775
sI1157949
I1082
sI109378
I5695
sI109380
I5441
sI76613
I1623
sI1125191
I3875
sI109384
I2573
sI1157961
I3800
sI76618
I5954
sI1125197
I3639
sI76622
I2993
sI1125200
I4085
sI109394
I261
sI1125204
I4320
sI2141013
I3406
sI109398
I3816
sI76631
I4292
sI109401
I2118
sI76634
I3560
sI109403
I915
sI109404
I2094
sI76637
I3461
sI109406
I1074
sI76639
I2770
sI76643
I3332
sI109413
I2312
sI76646
I3691
sI76649
I7113
sI109419
I3315
sI76652
I0
sI109422
I2111
sI109423
I1734
sI76656
I3997
sI109425
I5480
sI1158003
I856
sI109428
I3159
sI109429
I0
sI109431
I3449
sI109438
I1983
sI109440
I840
sI109441
I2871
sI109443
I1989
sI1158021
I1914
sI76682
I3564
sI1125259
I3570
sI76690
I1073
sI76692
I5142
sI76693
I2442
sI1158039
I1983
sI109464
I2965
sI76698
I1726
sI109467
I661
sI109468
I883
sI1158045
I2243
sI76702
I2400
sI109472
I2112
sI109473
I1907
sI1125282
I4356
sI105627
I3499
sI76708
I2476
sI109478
I445
sI76711
I4173
sI76714
I9671
sI109483
I1989
sI109486
I1982
sI1158065
I1388
sI76722
I2221
sI76723
I1079
sI109495
I3442
sI109498
I1334
sI76731
I4176
sI109500
I2247
sI109501
I1777
sI109503
I4394
sI109509
I4477
sI109513
I2781
sI109518
I8893
sI1125327
I2804
sI109520
I1019
sI1125329
I4344
sI109523
I2993
sI109526
I3091
sI109528
I331
sI109531
I1851
sI1125340
I2082
sI76765
I4468
sI109535
I1539
sI1125345
I1656
sI76770
I3238
sI1125348
I1918
sI109541
I3815
sI109543
I2004
sI109544
I3135
sI1125353
I3591
sI109546
I3482
sI76779
I1394
sI109549
I2992
sI1125358
I3403
sI76784
I1161
sI76785
I3482
sI76788
I2369
sI76790
I3187
sI109559
I2739
sI1158136
I1980
sI109562
I3088
sI76795
I2757
sI1158142
I3064
sI76805
I8432
sI76806
I2230
sI109575
I1075
sI76808
I9312
sI109578
I3767
sI1125387
I2912
sI1158157
I1149
sI1125390
I6210
sI1125392
I3299
sI109585
I4480
sI109590
I1206
sI109592
I2172
sI109593
I1519
sI1158170
I2858
sI76827
I3399
sI76828
I4667
sI109599
I2117
sI76832
I8786
sI76834
I5074
sI1125411
I10174
sI109604
I0
sI109606
I3069
sI1125416
I2688
sI76842
I4142
sI1143303
I1127
sI1125421
I2220
sI109614
I1889
sI109615
I826
sI109616
I1114
sI76849
I6931
sI1125429
I9366
sI109622
I2114
sI102943
I970
sI76857
I11640
sI1125442
I6822
sI109636
I2727
sI1125445
I18454
sI1125446
I3730
sI109639
I998
sI109641
I2316
sI109642
I904
sI1158219
I1742
sI109646
I2659
sI109647
I2000
sI76880
I5323
sI109650
I3984
sI76884
I8001
sI109653
I3004
sI1158231
I3107
sI109656
I3411
sI76889
I4712
sI1125466
I2568
sI109660
I4048
sI1158237
I1989
sI1125471
I2395
sI76896
I2154
sI76897
I0
sI109666
I2142
sI76900
I6100
sI1125478
I7780
sI109671
I1111
sI76904
I0
sI76905
I2597
sI109674
I2391
sI76908
I4268
sI109681
I3207
sI109683
I2596
sI1158261
I2065
sI109688
I2118
sI109690
I2000
sI76924
I6030
sI1125501
I2238
sI1125502
I992
sI1125503
I2079
sI109696
I1792
sI109698
I998
sI109699
I2808
sI109702
I1074
sI1158280
I2580
sI76939
I1878
sI109708
I1437
sI1125517
I4542
sI109710
I2496
sI1158288
I1996
sI1125522
I827
sI1125523
I2743
sI1125525
I5225
sI109719
I4138
sI76952
I1157
sI76953
I992
sI76956
I2173
sI109725
I2614
sI109726
I4005
sI76959
I0
sI109728
I3921
sI109730
I1111
sI109731
I3102
sI76964
I2381
sI109734
I3238
sI76967
I5828
sI109737
I2988
sI76970
I3785
sI1158315
I2141
sI76972
I7839
sI76973
I4028
sI76974
I3559
sI109744
I2224
sI76977
I2113
sI76978
I3448
sI109747
I2118
sI109748
I2002
sI1158327
I2305
sI76985
I3692
sI109754
I2044
sI1125563
I3867
sI109756
I2096
sI76990
I3200
sI1125568
I2133
sI111136
I2282
sI1125570
I2716
sI1158339
I4062
sI1125574
I3973
sI1125575
I2073
sI109768
I3020
sI109772
I2469
sI109773
I2150
sI1125582
I1501
sI77008
I1210
sI1125587
I589
sI1125588
I4213
sI77014
I2729
sI77015
I1705
sI109786
I2994
sI1158363
I0
sI1125596
I3388
sI1158365
I2066
sI109791
I1157
sI109792
I1901
sI109793
I2969
sI109795
I3780
sI1125604
I2726
sI1158375
I1157
sI109800
I2000
sI109801
I2976
sI1125610
I3218
sI77035
I5284
sI109805
I2805
sI77038
I2464
sI109807
I2059
sI1125616
I2408
sI109809
I1042
sI1125619
I2667
sI109812
I992
sI109814
I1336
sI109815
I2453
sI109816
I2245
sI1125629
I5431
sI109822
I1055
sI109825
I2258
sI109826
I826
sI109827
I1860
sI109828
I2220
sI1125637
I4295
sI109830
I2909
sI77064
I5155
sI1125642
I4017
sI77067
I3687
sI109837
I2002
sI109839
I1167
sI1125650
I6045
sI109844
I1431
sI77077
I5607
sI1125654
I5028
sI1125656
I3034
sI109850
I1074
sI109851
I2355
sI1125660
I1857
sI1125663
I3235
sI109856
I1995
sI109860
I1984
sI109861
I2002
sI1125670
I3650
sI109863
I1481
sI77099
I4688
sI77100
I2542
sI109869
I2890
sI1125678
I1454
sI77103
I2268
sI1125680
I1718
sI109873
I1818
sI1125682
I4589
sI109876
I1100
sI77109
I3192
sI109879
I3054
sI109881
I986
sI109882
I2457
sI77115
I2800
sI1125692
I3270
sI109885
I1074
sI109886
I3823
sI77119
I2856
sI77120
I6159
sI1125697
I1918
sI1125699
I1965
sI1125700
I1218
sI77125
I2756
sI1125704
I2688
sI1125705
I1899
sI109898
I1661
sI77131
I2578
sI1125709
I2286
sI1125711
I3831
sI109904
I3017
sI77137
I2909
sI109906
I1982
sI1125715
I3124
sI1125717
I1832
sI1125718
I1000
sI1125720
I3007
sI109914
I1907
sI77147
I1780
sI1125724
I3313
sI109917
I2136
sI1125726
I2247
sI1125729
I494
sI1125730
I5129
sI1125731
I2171
sI109926
I1004
sI109927
I2230
sI109928
I2396
sI1125738
I4708
sI77163
I2830
sI1125742
I2149
sI109936
I2000
sI1125745
I6653
sI109938
I1901
sI109939
I991
sI109941
I3376
sI1125750
I0
sI1158519
I1914
sI109944
I3000
sI109945
I2880
sI109947
I2103
sI77181
I4596
sI109951
I2066
sI77185
I2649
sI109954
I4353
sI77187
I1960
sI109957
I2696
sI77190
I2713
sI109959
I997
sI77192
I2344
sI77193
I1486
sI109962
I2113
sI77195
I2233
sI109964
I2008
sI77198
I1562
sI1125775
I577
sI77200
I1945
sI77204
I2467
sI77206
I1916
sI77208
I3235
sI77209
I2072
sI77210
I2139
sI109983
I2000
sI1125792
I2729
sI109985
I4542
sI109986
I2982
sI1125796
I3589
sI1125797
I2646
sI1125798
I2225
sI77223
I2797
sI109992
I1421
sI1125802
I3147
sI1158571
I1024
sI1125804
I1992
sI1158573
I1998
sI110000
I3085
sI110002
I1000
sI1125811
I2180
sI110004
I1000
sI110005
I2004
sI1125814
I1991
sI1125815
I0
sI1125816
I4507
sI110010
I1095
sI1125820
I3865
sI1125821
I2060
sI1125822
I3843
sI77247
I3849
sI1125825
I1783
sI110019
I3114
sI1158596
I1996
sI77253
I2154
sI110022
I1889
sI110023
I993
sI1125833
I1826
sI1125834
I889
sI77259
I2019
sI1125836
I2798
sI110031
I2073
sI110032
I2237
sI77265
I1991
sI77266
I2997
sI1125843
I2439
sI1125846
I2403
sI77271
I2229
sI1125848
I2073
sI110041
I3118
sI1125850
I2071
sI110045
I2904
sI1125854
I2906
sI1125855
I1504
sI1125858
I2070
sI77283
I1984
sI110053
I2893
sI77287
I445
sI77289
I2198
sI1125866
I2238
sI1125868
I452
sI110061
I1989
sI1125870
I1334
sI77295
I998
sI1125873
I3876
sI1125874
I2007
sI1125875
I0
sI1125876
I1643
sI1158645
I2887
sI110071
I909
sI1125880
I2301
sI1125882
I1098
sI110076
I2003
sI1125885
I1722
sI1125886
I2386
sI110079
I2004
sI110080
I1987
sI77313
I2327
sI1125890
I2041
sI110085
I1984
sI1125894
I3234
sI77319
I2814
sI110088
I2000
sI110089
I744
sI110090
I2114
sI110091
I4115
sI110095
I1914
sI1125904
I3502
sI110097
I2893
sI1125906
I927
sI1158675
I2951
sI1125909
I1988
sI110102
I991
sI110103
I2172
sI1158681
I1998
sI1125914
I1664
sI77343
I2984
sI1125920
I1694
sI1125922
I3300
sI1125924
I2743
sI1158693
I1907
sI1125926
I1644
sI1125927
I1319
sI110121
I2239
sI77355
I2669
sI1125932
I1169
sI1125933
I661
sI110126
I1989
sI1125935
I1711
sI77361
I1369
sI1125938
I1053
sI110131
I509
sI1125940
I2924
sI110134
I1786
sI77367
I508
sI1125944
I2002
sI1125945
I2646
sI110138
I2829
sI1125948
I7437
sI1125949
I1891
sI110142
I992
sI1125951
I1406
sI110144
I2999
sI1125954
I2894
sI77379
I4103
sI1125956
I2556
sI110149
I2066
sI1125958
I1988
sI110151
I2071
sI1125960
I3785
sI1125962
I4220
sI110155
I992
sI1125965
I3000
sI1158735
I1907
sI1125968
I3207
sI1159779
I1436
sI110164
I1114
sI110167
I2078
sI1125976
I2022
sI110170
I2161
sI110172
I3143
sI110174
I2111
sI1125985
I778
sI110178
I2016
sI110180
I2066
sI110182
I2000
sI1129715
I2073
sI110184
I2119
sI110186
I1863
sI77420
I4783
sI77422
I2977
sI77423
I4177
sI110192
I3870
sI110193
I3980
sI110194
I1566
sI110196
I1942
sI110199
I1585
sI110200
I1991
sI110202
I2322
sI110203
I2878
sI1158781
I2004
sI110206
I2823
sI110210
I1004
sI110211
I1487
sI110212
I2000
sI110214
I3750
sI110217
I1949
sI110218
I2415
sI110220
I3066
sI110221
I992
sI1158799
I2069
sI110224
I2115
sI1158801
I1000
sI1158802
I2875
sI110227
I2069
sI110229
I1004
sI110230
I3811
sI110233
I2952
sI110238
I2350
sI110244
I2085
sI94833
I1077
sI110251
I2286
sI110254
I2007
sI110256
I2021
sI110257
I4649
sI110258
I1199
sI111219
I1992
sI110261
I2954
sI110263
I1004
sI111220
I3080
sI110266
I2114
sI1158843
I2066
sI110268
I1000
sI110269
I2007
sI110271
I1889
sI110272
I3004
sI1158849
I1996
sI110274
I2066
sI110276
I2106
sI110278
I1983
sI110280
I3101
sI110284
I1903
sI1158861
I1901
sI110292
I3059
sI110294
I1904
sI110295
I3859
sI1158873
I2881
sI110298
I1984
sI110299
I1984
sI110300
I4014
sI110302
I2015
sI1158879
I2114
sI110304
I1080
sI110310
I2114
sI110314
I1985
sI1158891
I3006
sI110317
I1984
sI1158897
I1901
sI110326
I3008
sI110328
I2069
sI110330
I2916
sI1158909
I2893
sI110336
I2873
sI110338
I2004
sI110340
I3080
sI110343
I2645
sI110344
I2000
sI1158921
I2003
sI110350
I2987
sI1154349
I1079
sI110354
I2114
sI94851
I3007
sI110356
I1004
sI1158933
I1904
sI110359
I2994
sI110360
I2069
sI110362
I2115
sI1158939
I2067
sI110366
I2000
sI110368
I2072
sI1158945
I2004
sI110373
I1984
sI110374
I1992
sI110377
I3111
sI110378
I3071
sI1158957
I2114
sI110386
I1984
sI110388
I1893
sI110390
I2222
sI110392
I2994
sI110394
I2510
sI113880
I1940
sI110397
I1891
sI110398
I2002
sI110400
I2229
sI110403
I1558
sI110406
I3575
sI110409
I2896
sI110410
I2002
sI110413
I2067
sI110414
I2998
sI110415
I2499
sI109411
I2725
sI110419
I1492
sI110420
I0
sI110421
I2956
sI110424
I2781
sI110425
I1225
sI110426
I3682
sI110428
I2007
sI1159005
I2113
sI110431
I2504
sI110432
I3060
sI110437
I1075
sI110438
I3975
sI110439
I3001
sI110440
I2999
sI110446
I2966
sI110450
I1158
sI110452
I1075
sI110458
I5966
sI110460
I4317
sI110462
I3134
sI110464
I1985
sI110466
I4004
sI110468
I2092
sI110469
I5620
sI110473
I2002
sI110475
I1328
sI1159052
I2889
sI110477
I3992
sI110479
I1714
sI110481
I2007
sI110485
I2023
sI110488
I2994
sI1159065
I992
sI110490
I3845
sI110492
I3891
sI110493
I2000
sI110494
I3077
sI1159071
I2155
sI1143451
I2807
sI1159077
I2416
sI110502
I1976
sI110505
I2402
sI1159083
I1910
sI110511
I3334
sI1159089
I1115
sI110514
I2824
sI110515
I3198
sI1159095
I1940
sI110520
I1984
sI110521
I4547
sI110526
I2923
sI110529
I992
sI110530
I1992
sI110533
I1916
sI110534
I2947
sI110536
I1114
sI1159113
I3004
sI110541
I1780
sI110542
I3128
sI110546
I3164
sI110547
I1000
sI110548
I0
sI1159125
I2004
sI110551
I1123
sI110554
I2987
sI110556
I2889
sI1159135
I2079
sI110560
I2824
sI1159137
I1786
sI110563
I4598
sI1159142
I2509
sI1159147
I2068
sI1159148
I2448
sI1159149
I1891
sI110576
I1780
sI110577
I2000
sI110581
I2423
sI110582
I1505
sI110584
I1075
sI110588
I1075
sI1159167
I2845
sI110593
I2926
sI110594
I1026
sI1159171
I2085
sI110597
I1079
sI110599
I1004
sI1159179
I1998
sI110605
I2068
sI110606
I999
sI110608
I3032
sI113995
I3248
sI110611
I2986
sI110613
I993
sI110614
I1225
sI110619
I3023
sI1159197
I2899
sI110622
I3114
sI110624
I2053
sI110625
I2348
sI1159203
I2984
sI110632
I2207
sI110635
I2309
sI110637
I2057
sI110640
I2136
sI110642
I3011
sI110643
I3553
sI110645
I4498
sI110646
I2002
sI1159227
I2649
sI110652
I2342
sI110653
I3011
sI1159231
I2080
sI110656
I2000
sI1159233
I2567
sI110660
I1910
sI1159240
I2799
sI110667
I2115
sI1159245
I1908
sI110670
I2085
sI110674
I2316
sI1159251
I2178
sI110678
I3061
sI110681
I2553
sI110683
I1633
sI110684
I2559
sI110686
I445
sI1159263
I2773
sI1159266
I1158
sI110691
I2113
sI110692
I1903
sI1159269
I3382
sI110698
I2335
sI1159275
I2926
sI110702
I2984
sI110708
I3290
sI110710
I1558
sI110713
I3003
sI110715
I2327
sI110716
I1017
sI110718
I2118
sI110720
I3000
sI110724
I2002
sI110730
I4844
sI110731
I2395
sI110733
I1199
sI1159311
I1937
sI110737
I1487
sI1159317
I6245
sI110742
I2000
sI110743
I1000
sI1159323
I3894
sI110749
I0
sI1159326
I3118
sI110751
I2169
sI110752
I508
sI110757
I3758
sI110760
I1574
sI110763
I2739
sI110764
I967
sI1159342
I1596
sI110768
I2991
sI110769
I1076
sI110772
I2142
sI110776
I2111
sI110778
I3088
sI1159359
I1290
sI110784
I3151
sI110786
I2845
sI110791
I4944
sI110793
I2111
sI1159371
I1074
sI1159372
I1080
sI110798
I2888
sI110802
I2993
sI110804
I889
sI1159381
I2002
sI1157014
I2065
sI110808
I1919
sI110810
I3135
sI1159389
I1175
sI1154832
I0
sI110816
I2319
sI110820
I988
sI110821
I2121
sI110823
I2407
sI110824
I1426
sI110826
I1486
sI110828
I2900
sI110830
I3263
sI1159410
I2872
sI110835
I1436
sI110836
I666
sI110841
I1775
sI1159418
I2231
sI1159419
I2000
sI1159420
I0
sI110845
I1276
sI110847
I2000
sI1159425
I2954
sI110851
I1155
sI110854
I2934
sI110860
I2818
sI110862
I2008
sI110863
I1322
sI110864
I1405
sI110865
I2317
sI1159443
I2711
sI110868
I1574
sI110871
I2488
sI1159450
I2577
sI110875
I2237
sI113896
I1783
sI110878
I3117
sI110880
I3041
sI110881
I2901
sI2142499
I3243
sI110884
I1111
sI110887
I2984
sI110889
I2901
sI2142506
I2410
sI110892
I2903
sI110893
I2901
sI110894
I2461
sI110896
I2118
sI1159473
I3050
sI110900
I2000
sI110902
I2887
sI110904
I2971
sI110908
I3169
sI110911
I1967
sI110914
I4784
sI1159491
I2492
sI110919
I2392
sI110920
I2690
sI110924
I2681
sI110925
I1984
sI110926
I1891
sI1159503
I2114
sI110930
I4470
sI110931
I1504
sI110932
I953
sI110937
I2004
sI110940
I2563
sI110941
I362
sI2142558
I0
sI110944
I0
sI105872
I2078
sI110947
I1446
sI110949
I1564
sI110950
I1445
sI2142567
I1928
sI1159911
I2063
sI110958
I2563
sI110959
I3023
sI2142578
I2314
sI1159539
I1889
sI110966
I1778
sI2142584
I2036
sI110970
I2242
sI110971
I744
sI110972
I4478
sI110973
I3202
sI1159551
I3003
sI110978
I3115
sI110980
I3145
sI1159557
I1995
sI110983
I1111
sI110986
I1004
sI110987
I1738
sI110991
I1273
sI110992
I2581
sI110996
I4124
sI111001
I2078
sI2142618
I1896
sI111003
I3393
sI1159587
I2000
sI111012
I2065
sI1159593
I2028
sI111019
I1952
sI111020
I4498
sI111022
I2038
sI1159600
I3169
sI111028
I2381
sI1159605
I2000
sI111030
I2002
sI111032
I2988
sI111036
I2910
sI111037
I1075
sI2142654
I2067
sI111039
I1026
sI111040
I2429
sI1159617
I1832
sI111044
I0
sI2142662
I1503
sI111048
I2002
sI1159626
I1990
sI111051
I2736
sI2142669
I3070
sI111056
I1984
sI111058
I2916
sI111062
I3077
sI2142682
I2916
sI1159643
I2519
sI2142686
I2858
sI1159647
I2066
sI111075
I0
sI111076
I4640
sI1159659
I3056
sI111086
I2986
sI111088
I3058
sI111091
I2607
sI111093
I992
sI111094
I5163
sI1159671
I2883
sI111098
I1984
sI111100
I1074
sI1159677
I1074
sI111102
I2066
sI111103
I3058
sI111106
I1000
sI1159683
I1004
sI111108
I2000
sI111109
I893
sI111111
I1074
sI1159688
I1990
sI1159689
I992
sI111117
I1115
sI1159695
I2975
sI111121
I1984
sI111122
I2078
sI111123
I1990
sI1159701
I2078
sI1159703
I1984
sI111128
I2327
sI111129
I3026
sI1159706
I1986
sI1159707
I3080
sI109634
I3790
sI111137
I1096
sI111140
I1957
sI1159717
I2170
sI111143
I2005
sI111144
I2051
sI113905
I2351
sI111149
I2066
sI1159727
I2992
sI111152
I3622
sI111153
I2002
sI111154
I0
sI1159731
I1096
sI111158
I2195
sI1159735
I2029
sI111162
I1908
sI111164
I2451
sI111166
I2994
sI2142786
I2981
sI111171
I0
sI1159748
I1826
sI1159749
I2000
sI1159751
I2000
sI111176
I2161
sI1159753
I2510
sI1159756
I1989
sI111182
I2918
sI111183
I1659
sI1159764
I2067
sI1159767
I2002
sI111192
I2435
sI111195
I2840
sI1159774
I1989
sI111201
I998
sI2142819
I3865
sI111204
I3968
sI1159782
I3683
sI113907
I1964
sI1159785
I1659
sI111211
I2123
sI2142829
I3118
sI111214
I2820
sI2142835
I2987
sI2142836
I2987
sI111223
I2000
sI111225
I2275
sI111226
I1556
sI2142845
I3022
sI111230
I2066
sI111231
I2002
sI111232
I2066
sI105920
I1411
sI2142851
I2976
sI1159815
I5474
sI111241
I2562
sI111244
I939
sI2142862
I3111
sI111247
I1985
sI111248
I2067
sI95000
I2146
sI111252
I2206
sI111260
I2091
sI111261
I1857
sI1159839
I2230
sI111265
I2501
sI111267
I1062
sI1159845
I2655
sI111273
I1805
sI1159851
I109
sI111276
I1195
sI111278
I3051
sI111279
I2028
sI111280
I992
sI111285
I2067
sI111286
I2876
sI2142903
I977
sI111288
I1782
sI111289
I1004
sI111290
I1126
sI111391
I2067
sI111295
I2067
sI2142913
I1406
sI1159875
I1111
sI111300
I1996
sI111303
I2120
sI111304
I2012
sI111306
I2225
sI111308
I2024
sI111309
I1984
sI111314
I3902
sI111315
I3113
sI111319
I3782
sI111320
I2468
sI111321
I2990
sI1159898
I2885
sI2142939
I1896
sI111324
I2592
sI111325
I2053
sI111327
I3372
sI111328
I3002
sI111332
I2002
sI111333
I2922
sI111334
I1467
sI2142951
I2002
sI111337
I3519
sI111340
I2574
sI111342
I1843
sI111343
I3113
sI111349
I2297
sI111351
I3882
sI1159929
I2312
sI111356
I3488
sI111357
I2275
sI111358
I3701
sI111361
I1126
sI111362
I3346
sI111364
I2629
sI111372
I2067
sI111374
I3002
sI111376
I2079
sI111379
I2150
sI2142997
I2316
sI1159959
I1909
sI111386
I1997
sI111387
I1889
sI2143007
I1711
sI111392
I1908
sI2143011
I2411
sI78629
I1912
sI1159975
I1075
sI111400
I4343
sI111402
I3066
sI111403
I2690
sI1159981
I3110
sI1159983
I2002
sI111408
I2000
sI111410
I2207
sI111412
I2575
sI1159991
I2269
sI1143604
I1697
sI111418
I2186
sI78651
I1573
sI1127228
I1345
sI111421
I2192
sI111422
I1986
sI78655
I1988
sI78656
I3798
sI78657
I2875
sI111427
I2981
sI1160004
I2888
sI111432
I2004
sI1160009
I3154
sI111434
I2111
sI1127245
I2888
sI2143055
I2002
sI1127248
I1753
sI78674
I6774
sI1160020
I2576
sI2143061
I969
sI111446
I2660
sI111448
I1679
sI1160025
I2069
sI78683
I2002
sI1160029
I2444
sI1160031
I1967
sI111457
I2068
sI1160035
I2253
sI111462
I993
sI1160039
I2795
sI111464
I1407
sI78652
I2087
sI111466
I3743
sI2143083
I3988
sI111472
I2434
sI1160051
I2783
sI78709
I4127
sI111478
I2068
sI1160055
I2080
sI111481
I1000
sI111483
I3107
sI1160060
I2423
sI1127232
I3562
sI111490
I2071
sI111493
I1665
sI1127302
I3996
sI78727
I0
sI1160073
I2074
sI1127307
I2481
sI1127308
I1464
sI78733
I2777
sI111502
I2782
sI1160079
I2151
sI78736
I2432
sI1127313
I2564
sI111506
I3055
sI1127316
I3472
sI1160085
I2215
sI111510
I1889
sI1127319
I607
sI1127320
I2024
sI1127321
I1326
sI111514
I2085
sI111515
I3073
sI111517
I8676
sI1127326
I2088
sI1127327
I866
sI1127328
I3056
sI111521
I1691
sI1127331
I2071
sI1127332
I1209
sI2143141
I1932
sI111526
I1676
sI111529
I1992
sI1127338
I2132
sI111531
I1906
sI111532
I1820
sI78767
I3392
sI1127345
I2446
sI2143155
I2588
sI78773
I1655
sI78774
I1162
sI111543
I2878
sI111544
I2339
sI78779
I1463
sI78782
I3326
sI78783
I2988
sI111552
I1163
sI78785
I2137
sI2143170
I1983
sI1127363
I1743
sI111556
I3306
sI78789
I2648
sI1127366
I3124
sI1127367
I3191
sI78792
I3086
sI111562
I2911
sI1127371
I4173
sI78797
I2548
sI111566
I2115
sI78800
I562
sI111572
I2323
sI111573
I1970
sI111574
I1406
sI111577
I2907
sI78671
I2917
sI111581
I2746
sI111583
I1075
sI111584
I910
sI111440
I3007
sI2143202
I871
sI1160163
I1445
sI111591
I1998
sI111592
I1332
sI1160169
I893
sI1127404
I2661
sI1127250
I3061
sI1127407
I3801
sI1127408
I1940
sI111601
I4617
sI1127412
I3121
sI78837
I1061
sI111606
I2167
sI111607
I992
sI1127416
I2312
sI1127417
I1243
sI111612
I1514
sI111613
I1985
sI111614
I1736
sI111615
I579
sI111618
I1424
sI111619
I2004
sI111620
I2002
sI111621
I1893
sI1160198
I2070
sI1160199
I1892
sI111624
I2232
sI111625
I1240
sI111627
I2073
sI111628
I632
sI111630
I1893
sI111631
I1000
sI2143249
I1975
sI1160211
I1406
sI111637
I2327
sI111638
I3481
sI2143255
I2794
sI111642
I2002
sI111645
I1095
sI1160223
I2000
sI111649
I1787
sI111650
I1862
sI111451
I2877
sI111653
I1164
sI111654
I1610
sI111658
I1348
sI111660
I782
sI111663
I2439
sI111664
I2008
sI78897
I3055
sI2143283
I4261
sI111668
I2076
sI111669
I2321
sI1160247
I259
sI111673
I863
sI1127482
I1552
sI111675
I2237
sI111676
I1410
sI2143293
I3031
sI1127486
I2977
sI111682
I2385
sI78915
I1389
sI111684
I1014
sI1127494
I1498
sI78919
I2408
sI78921
I1321
sI78924
I1893
sI1127501
I3396
sI1127502
I1225
sI78927
I833
sI1127504
I2622
sI1160273
I1606
sI111699
I1406
sI111704
I1199
sI111706
I1834
sI1160283
I990
sI111708
I2162
sI1160289
I2882
sI111714
I3001
sI111716
I1998
sI113924
I1968
sI1160295
I0
sI111720
I1985
sI111722
I2889
sI111723
I1936
sI111724
I3028
sI111729
I3001
sI111730
I2522
sI111732
I2002
sI111734
I1911
sI111735
I2002
sI111741
I3128
sI111744
I3839
sI1160321
I2284
sI1160325
I1000
sI111751
I2310
sI111754
I2834
sI1160333
I2541
sI111760
I2984
sI111764
I2385
sI111766
I1939
sI1160343
I1987
sI111769
I1645
sI111772
I2896
sI1160349
I1902
sI111777
I509
sI1160355
I1131
sI111780
I993
sI111781
I2979
sI1160358
I2819
sI111783
I2334
sI1160361
I2978
sI1160363
I2979
sI111788
I2232
sI1160366
I2519
sI1160367
I4798
sI111794
I1075
sI2143413
I2225
sI111799
I1021
sI1160377
I3240
sI111802
I2733
sI1160379
I0
sI111804
I1976
sI111806
I1459
sI1160387
I2805
sI111812
I2111
sI111814
I3244
sI1160392
I899
sI111818
I2123
sI1160395
I127
sI1160396
I1137
sI1160397
I1780
sI111824
I3152
sI111829
I2686
sI111830
I2233
sI1160407
I1891
sI111832
I1780
sI2143449
I2017
sI2143450
I3060
sI111836
I2239
sI111837
I1986
sI111838
I1178
sI111840
I2225
sI111844
I2447
sI111852
I1989
sI1160429
I1830
sI111858
I1222
sI111860
I3144
sI111864
I2564
sI1160445
I2776
sI111871
I1222
sI1160448
I2115
sI111874
I2148
sI111876
I1983
sI111880
I1491
sI1160457
I2004
sI111883
I2245
sI111886
I2074
sI1160463
I2505
sI111889
I2667
sI111891
I3707
sI111895
I2645
sI97563
I3444
sI111898
I1222
sI111900
I1074
sI111901
I2280
sI111902
I1225
sI2143519
I3005
sI111904
I2000
sI1151595
I2375
sI111494
I4080
sI111913
I3056
sI111914
I1985
sI111916
I1981
sI1160493
I992
sI111920
I2568
sI111921
I0
sI111922
I2992
sI2143539
I3086
sI111926
I2111
sI111931
I1598
sI111932
I2072
sI1160512
I2000
sI111938
I2216
sI1160517
I2905
sI111942
I4430
sI111946
I3100
sI2143563
I2454
sI1160527
I2850
sI111955
I1887
sI111957
I2242
sI1160535
I2114
sI111961
I2496
sI1160540
I1474
sI1160543
I1239
sI111968
I2046
sI1160080
I2224
sI1160547
I2813
sI111972
I1989
sI2143589
I2146
sI111974
I1911
sI111505
I2118
sI111976
I1074
sI111981
I2122
sI111984
I1004
sI111985
I893
sI111988
I1983
sI111990
I2000
sI111992
I2072
sI2143124
I1984
sI111994
I2868
sI2143611
I1662
sI1160573
I1866
sI112002
I2731
sI112003
I2132
sI112004
I2000
sI1160583
I1800
sI112008
I2479
sI111511
I1889
sI112014
I2990
sI112015
I2114
sI112017
I2484
sI1160595
I998
sI112020
I1239
sI112023
I992
sI112024
I2994
sI1160601
I1999
sI1160603
I2496
sI112028
I998
sI112030
I3076
sI1160607
I4535
sI112033
I3932
sI112036
I5267
sI96983
I1124
sI2143654
I2283
sI112041
I3192
sI1160619
I2246
sI112044
I4627
sI112046
I1112
sI112051
I3993
sI2143134
I4733
sI112054
I2073
sI112059
I2187
sI112062
I2221
sI112064
I2976
sI111520
I2381
sI112066
I2004
sI106059
I995
sI112069
I3300
sI112071
I2914
sI112072
I1919
sI112073
I5214
sI112074
I2051
sI112078
I1075
sI112083
I2661
sI112084
I2113
sI112088
I3112
sI112094
I2232
sI112096
I2002
sI1160673
I1915
sI112098
I1983
sI112099
I1983
sI112101
I1990
sI112102
I1991
sI1160679
I2271
sI112105
I1000
sI112106
I2072
sI112108
I2115
sI112110
I1000
sI2143728
I1000
sI112114
I2994
sI1160691
I1000
sI2143733
I2118
sI112119
I2992
sI1160697
I3004
sI1160698
I1990
sI112123
I1739
sI2143740
I923
sI111530
I2134
sI112128
I2916
sI1160709
I3017
sI112134
I2045
sI112137
I4240
sI1160715
I2069
sI112140
I2111
sI112142
I2079
sI2143762
I688
sI112147
I3903
sI1160724
I1111
sI112149
I1113
sI1160727
I1000
sI2143768
I1547
sI112153
I0
sI112154
I3307
sI111535
I3840
sI112156
I1996
sI112158
I2004
sI2143775
I1666
sI112161
I2986
sI112162
I2111
sI111537
I3001
sI112168
I1114
sI1160745
I2891
sI112170
I2072
sI112172
I2489
sI2143789
I2557
sI112177
I1000
sI112178
I2484
sI79411
I3370
sI1127988
I2331
sI1127989
I3242
sI79414
I2301
sI79416
I4315
sI112185
I1810
sI112186
I1004
sI112189
I3118
sI112191
I2004
sI79424
I4354
sI1160771
I2562
sI79428
I4914
sI1128005
I7024
sI112198
I2733
sI112201
I889
sI112203
I2197
sI112208
I1827
sI79441
I5556
sI79443
I3991
sI112212
I2478
sI2143829
I3004
sI2143831
I2002
sI112216
I3537
sI1160793
I1444
sI112219
I2561
sI79452
I530
sI1128029
I6089
sI112222
I3742
sI2143839
I1000
sI79457
I3920
sI79460
I5018
sI1160805
I2567
sI112230
I3129
sI1160807
I2729
sI79465
I1907
sI112234
I1000
sI112236
I1699
sI112238
I2111
sI112240
I2904
sI1160817
I2991
sI112242
I3167
sI112244
I1891
sI111550
I919
sI1160823
I1889
sI79483
I6440
sI1160829
I2113
sI2143870
I2881
sI112256
I3178
sI112258
I909
sI122475
I1295
sI112260
I2885
sI112261
I4266
sI111553
I1998
sI112268
I3471
sI111554
I1017
sI112270
I3300
sI112272
I2401
sI112276
I2073
sI112280
I0
sI112281
I2143
sI1160859
I1257
sI112284
I1983
sI112287
I1942
sI112288
I2384
sI2143908
I1023
sI111558
I1910
sI112294
I1492
sI1160871
I3585
sI1160873
I2000
sI111559
I3876
sI112300
I2171
sI1128110
I5365
sI111560
I2002
sI79541
I4064
sI112310
I1935
sI1128119
I4411
sI79544
I2114
sI79545
I2982
sI2143930
I0
sI112316
I2002
sI1171249
I7653
sI112318
I1270
sI112320
I0
sI1128131
I3880
sI112324
I1162
sI1160901
I1513
sI112326
I1653
sI79559
I5532
sI79560
I2654
sI1128137
I1985
sI79563
I1695
sI112332
I2649
sI1128142
I1792
sI112336
I992
sI1160913
I2078
sI79571
I3213
sI79572
I0
sI112341
I2066
sI112342
I2072
sI79575
I2801
sI112344
I2072
sI1128153
I1902
sI79578
I2152
sI112347
I1983
sI79580
I4482
sI79581
I2894
sI79583
I1889
sI112352
I1000
sI1128161
I1891
sI79586
I2071
sI1128163
I2261
sI1160933
I2189
sI1160935
I1668
sI112360
I1114
sI79593
I0
sI79594
I1538
sI112363
I1004
sI112365
I3583
sI112366
I2229
sI2143983
I2602
sI2143988
I1406
sI1160949
I1987
sI112374
I1004
sI112375
I1607
sI112380
I2817
sI112381
I2008
sI112384
I1004
sI1160961
I623
sI112386
I2919
sI112388
I2379
sI112393
I910
sI2144011
I1681
sI1160973
I1653
sI1160974
I2882
sI112402
I2066
sI112405
I1000
sI2144023
I1316
sI112408
I2383
sI112409
I2675
sI2144026
I2316
sI112411
I1787
sI112414
I1290
sI1160991
I1155
sI112416
I3762
sI1160993
I1984
sI112418
I1214
sI78811
I3029
sI112420
I1893
sI112423
I1461
sI1161003
I2020
sI112428
I2331
sI112429
I1253
sI112430
I989
sI1161009
I2817
sI112434
I2981
sI112436
I2687
sI112437
I1992
sI112438
I1636
sI112442
I2409
sI2144059
I1058
sI1161020
I992
sI112446
I2111
sI1161023
I1819
sI112448
I2800
sI1161027
I2000
sI112452
I1987
sI112453
I1004
sI112456
I1004
sI112459
I1763
sI2144077
I2218
sI112464
I1891
sI112466
I2469
sI112467
I2894
sI1161045
I2449
sI112471
I2004
sI112473
I2605
sI112474
I2673
sI1161051
I1622
sI112478
I2928
sI112479
I666
sI112482
I1990
sI112486
I1507
sI112489
I1324
sI112490
I2190
sI1161069
I1731
sI2144115
I1951
sI112500
I1672
sI112501
I2002
sI112503
I2001
sI112505
I1323
sI112508
I1889
sI112509
I1538
sI112511
I1004
sI2144128
I3011
sI112513
I1920
sI112515
I2745
sI112516
I1114
sI112519
I803
sI111596
I1896
sI1161099
I3017
sI112524
I1778
sI2144141
I2807
sI2144142
I2333
sI2144143
I0
sI112528
I1338
sI112530
I1782
sI112531
I1571
sI112532
I2010
sI112534
I1556
sI2144151
I2994
sI112536
I242
sI112537
I1848
sI112538
I2999
sI112539
I2073
sI1161119
I1543
sI112544
I2150
sI111600
I0
sI112546
I999
sI2144166
I2131
sI112551
I973
sI1161128
I2137
sI2144172
I2995
sI2144175
I3036
sI112560
I1675
sI112561
I2994
sI104132
I1336
sI112566
I2073
sI112567
I1893
sI112569
I3744
sI112570
I3004
sI112575
I4036
sI112579
I2649
sI112580
I2305
sI2144197
I1869
sI112582
I2006
sI112586
I1926
sI112587
I1819
sI2144204
I1914
sI112592
I1670
sI111608
I2811
sI112598
I2568
sI112603
I668
sI112604
I904
sI112606
I2770
sI112607
I1514
sI112608
I1909
sI112611
I1797
sI112614
I3565
sI112617
I3025
sI1161195
I557
sI2144236
I2481
sI112622
I3511
sI112624
I2436
sI112627
I1889
sI112632
I2008
sI112634
I1486
sI2144251
I2292
sI112639
I2175
sI112640
I1782
sI112641
I0
sI112644
I1554
sI112646
I2080
sI112648
I1794
sI112649
I2916
sI112650
I2068
sI112655
I3059
sI112656
I2992
sI112658
I2556
sI112659
I2449
sI112661
I2038
sI112663
I1004
sI112664
I788
sI112665
I1671
sI2144284
I3028
sI112669
I1902
sI112671
I4591
sI112672
I2022
sI1161249
I3255
sI1161255
I2437
sI2144296
I1900
sI2144297
I1336
sI1161261
I993
sI2144304
I1781
sI112692
I1336
sI112693
I857
sI112694
I1990
sI112695
I2149
sI112698
I1890
sI112700
I1886
sI2144317
I2721
sI112702
I782
sI112704
I3345
sI112705
I3042
sI112707
I2989
sI112708
I3560
sI112710
I1004
sI112711
I2024
sI112713
I1985
sI112714
I2002
sI112715
I2000
sI112718
I2751
sI2144335
I1165
sI112720
I1004
sI112722
I2078
sI112723
I1000
sI112725
I2932
sI112727
I2005
sI112730
I1445
sI112731
I2778
sI112733
I1713
sI112735
I4416
sI112737
I993
sI112738
I1916
sI112739
I1556
sI112741
I993
sI112742
I1551
sI112744
I1979
sI112745
I1004
sI112748
I2961
sI112749
I1959
sI112753
I1903
sI112754
I2008
sI112755
I3004
sI112760
I2000
sI112761
I2000
sI1161339
I2881
sI112764
I3004
sI112765
I1000
sI112767
I2232
sI112773
I2877
sI112774
I2003
sI112776
I1908
sI112780
I1897
sI122562
I1284
sI112782
I470
sI112783
I2036
sI112786
I5180
sI2144403
I2805
sI112791
I1986
sI112795
I2963
sI112798
I1655
sI1161375
I2265
sI112805
I3563
sI112806
I3667
sI112808
I2071
sI112809
I1988
sI112812
I2472
sI113355
I1986
sI112815
I1223
sI112816
I2138
sI112818
I2754
sI112821
I897
sI112822
I4048
sI2144439
I2854
sI112824
I1111
sI112825
I2068
sI112829
I2153
sI112834
I1826
sI112839
I1492
sI112841
I1110
sI112842
I1468
sI112846
I1389
sI112848
I2397
sI112851
I4584
sI112852
I1518
sI112854
I1906
sI112855
I3347
sI112856
I2797
sI112858
I1168
sI112859
I2853
sI106192
I2891
sI2144482
I2884
sI112867
I992
sI1161444
I2728
sI112870
I1985
sI112875
I1082
sI112880
I1524
sI112881
I2624
sI112882
I979
sI112884
I1460
sI112886
I1344
sI112888
I1891
sI112891
I1156
sI112897
I2524
sI112898
I3000
sI112900
I2043
sI112902
I2564
sI112904
I3772
sI112906
I0
sI112907
I2130
sI112911
I0
sI112912
I2800
sI112913
I2552
sI112915
I2485
sI122693
I0
sI112920
I1000
sI2144539
I2903
sI112924
I2002
sI112925
I1601
sI112929
I1111
sI112930
I2661
sI112932
I1610
sI112933
I965
sI112934
I2004
sI1160241
I3016
sI112936
I1990
sI2144557
I1222
sI112942
I2795
sI112944
I1990
sI112945
I2073
sI112946
I1116
sI112947
I1935
sI112948
I1406
sI112956
I2703
sI112962
I4118
sI112965
I1503
sI112969
I1362
sI2144586
I0
sI112978
I936
sI112980
I2763
sI112982
I556
sI112983
I5076
sI112984
I2210
sI112985
I0
sI112987
I3435
sI112988
I1669
sI111674
I1944
sI112993
I2401
sI112994
I2415
sI112996
I6282
sI106214
I2995
sI1161579
I1970
sI113004
I1672
sI113005
I5089
sI113006
I1323
sI1160253
I2233
sI1161587
I2218
sI2143294
I0
sI113014
I1893
sI2144631
I2450
sI113016
I993
sI113017
I1882
sI113019
I1985
sI113021
I2332
sI113022
I2151
sI113024
I1111
sI113025
I1637
sI113027
I1986
sI113028
I771
sI113029
I2652
sI113030
I470
sI113031
I1985
sI113033
I1225
sI113039
I2108
sI113041
I2158
sI113043
I1328
sI1161620
I2049
sI113046
I1994
sI113048
I2000
sI113050
I1067
sI113051
I2369
sI113052
I1000
sI113054
I1026
sI113058
I1445
sI1161635
I1444
sI113060
I1156
sI111686
I1985
sI1161639
I1906
sI113065
I1811
sI113068
I1579
sI1161645
I1558
sI113071
I1116
sI113073
I2196
sI2144692
I1556
sI113077
I1893
sI111689
I2985
sI1171188
I4072
sI113082
I2069
sI113083
I1966
sI1161660
I1576
sI113085
I1440
sI113088
I2343
sI113091
I754
sI113093
I1111
sI113095
I1445
sI113096
I1406
sI111692
I2430
sI113098
I2074
sI2144715
I2779
sI113101
I1489
sI1160269
I2114
sI113105
I1106
sI113107
I2036
sI113108
I1752
sI111694
I2032
sI113110
I1917
sI113113
I1861
sI2144730
I2906
sI113118
I2005
sI113119
I745
sI113126
I1659
sI113130
I1820
sI113132
I1362
sI113134
I2198
sI113137
I1497
sI113139
I3420
sI113143
I1934
sI113144
I6341
sI2144762
I1095
sI113147
I1709
sI113151
I857
sI113152
I1162
sI113154
I1136
sI113155
I1408
sI113160
I1075
sI1161737
I1991
sI104152
I1675
sI113166
I1395
sI113170
I1418
sI113171
I264
sI113175
I1359
sI113176
I1267
sI1161753
I1902
sI113179
I1714
sI113182
I1998
sI113185
I1239
sI113186
I675
sI113191
I1734
sI113194
I1898
sI113196
I1612
sI113200
I1225
sI113203
I349
sI113205
I1602
sI1161783
I1328
sI113209
I1489
sI113210
I321
sI1161787
I2251
sI113212
I1896
sI1161789
I2071
sI113214
I1527
sI113215
I1323
sI113217
I942
sI113218
I1394
sI113220
I414
sI113223
I2472
sI1161801
I1917
sI1161804
I1124
sI113229
I2032
sI122638
I3478
sI1161814
I1222
sI113241
I2329
sI113242
I2080
sI1161819
I2309
sI80478
I2397
sI113247
I2000
sI113248
I1114
sI1161825
I1445
sI113252
I1449
sI113253
I3204
sI80486
I2906
sI1129063
I3331
sI80488
I3224
sI80490
I2978
sI1129067
I743
sI113263
I1000
sI1129072
I1924
sI80499
I2240
sI1129076
I1165
sI80501
I3487
sI113270
I2337
sI80503
I5391
sI1129080
I2110
sI1129081
I4663
sI113275
I1004
sI1129084
I4964
sI1129085
I2562
sI113278
I1924
sI1129088
I908
sI113281
I2416
sI113282
I2540
sI1161862
I2012
sI80520
I3814
sI113290
I1445
sI122647
I2374
sI113293
I2157
sI113294
I999
sI113295
I428
sI1161873
I2671
sI113299
I3547
sI113302
I2463
sI113304
I2673
sI113305
I2680
sI113307
I1965
sI113310
I2577
sI1161887
I1461
sI113313
I0
sI1161893
I1469
sI113319
I4222
sI1129129
I3143
sI113324
I2467
sI113325
I1225
sI1161903
I1076
sI113329
I1022
sI113330
I2784
sI113333
I1040
sI80566
I2887
sI113335
I1857
sI1129144
I4045
sI113337
I61
sI80570
I2973
sI1171231
I1445
sI80572
I2522
sI113341
I1919
sI113343
I1486
sI113344
I1619
sI113346
I2114
sI1129155
I2002
sI1161927
I1206
sI113352
I1967
sI1129161
I1079
sI80587
I1906
sI113356
I2140
sI80589
I2991
sI80590
I2070
sI1161937
I1445
sI80594
I3118
sI80595
I3416
sI113365
I2069
sI1129176
I1982
sI122660
I9241
sI80603
I2439
sI1129180
I3899
sI1129181
I3686
sI1129184
I1082
sI1160373
I1910
sI1129186
I3799
sI113379
I1998
sI113385
I562
sI1161963
I782
sI80620
I2972
sI1161965
I2448
sI80622
I2159
sI1129199
I2440
sI1129200
I3115
sI113394
I1953
sI1129203
I0
sI1129204
I3553
sI113397
I1014
sI80631
I1981
sI113400
I2334
sI113404
I1405
sI113407
I2781
sI1161987
I2106
sI113414
I2137
sI113416
I2352
sI1161993
I2717
sI1129227
I2109
sI1129228
I2985
sI113421
I1576
sI80658
I3833
sI113427
I1815
sI113428
I1770
sI1129237
I2007
sI113430
I3164
sI1129239
I1004
sI80664
I2003
sI80667
I3155
sI113436
I2581
sI80669
I1000
sI1162014
I1858
sI80672
I2070
sI80673
I4215
sI80674
I1906
sI113445
I1411
sI1162023
I2276
sI80681
I908
sI80682
I0
sI113454
I2112
sI1129263
I1816
sI113456
I1371
sI113457
I3475
sI1129266
I4001
sI2135846
I1234
sI80693
I5752
sI1162039
I2700
sI113464
I2336
sI80697
I4268
sI80698
I3912
sI113467
I3043
sI1129277
I1074
sI113472
I2067
sI80705
I7187
sI80707
I4813
sI113476
I1003
sI80709
I1735
sI1129286
I2985
sI1129288
I2650
sI80713
I3686
sI80715
I2564
sI113485
I4189
sI1129294
I1891
sI80719
I2973
sI113488
I1087
sI1129298
I1982
sI80723
I1152
sI113492
I1337
sI113494
I2820
sI113496
I2002
sI80731
I4799
sI113500
I3087
sI1162077
I465
sI113504
I1517
sI113505
I1708
sI113506
I1971
sI106299
I1891
sI113508
I1336
sI113509
I2079
sI113511
I1997
sI113512
I2067
sI113516
I2905
sI1162097
I2800
sI113523
I2198
sI1162101
I2077
sI113527
I0
sI113531
I2147
sI113532
I2145
sI113538
I3072
sI113539
I2067
sI113541
I2636
sI113542
I2554
sI113544
I2445
sI113547
I1600
sI113548
I1493
sI1162125
I3666
sI113553
I1897
sI113554
I2636
sI113556
I2274
sI113563
I2225
sI113567
I1491
sI113569
I2633
sI113570
I2992
sI113574
I1275
sI113575
I1562
sI113578
I2519
sI113581
I331
sI113582
I1654
sI113584
I1985
sI113586
I1631
sI1162166
I661
sI113592
I5172
sI113596
I1908
sI113598
I711
sI113599
I1500
sI113600
I4338
sI106315
I7187
sI113604
I869
sI113607
I0
sI113608
I4113
sI113612
I1653
sI113614
I1876
sI1162191
I827
sI113616
I1748
sI113618
I1489
sI113620
I1334
sI106318
I3413
sI113622
I834
sI113624
I1948
sI1162203
I2886
sI113629
I2007
sI113631
I1158
sI1162209
I1939
sI113636
I608
sI113643
I2074
sI113644
I3044
sI113646
I3232
sI113648
I2522
sI1162227
I3116
sI113653
I2192
sI113654
I893
sI113655
I2027
sI1162233
I1116
sI113658
I1465
sI113659
I1533
sI1162239
I2005
sI113666
I2243
sI1162243
I2498
sI113670
I671
sI113678
I2461
sI1162255
I872
sI1162257
I6150
sI113682
I1955
sI113683
I1010
sI113686
I2101
sI113688
I2404
sI1162269
I1028
sI113694
I2099
sI113702
I1703
sI113704
I1872
sI1162281
I2492
sI113707
I2462
sI113708
I2055
sI113712
I1454
sI113713
I2245
sI113718
I1111
sI113721
I2193
sI1162299
I1346
sI113724
I1498
sI81257
I2030
sI113731
I1269
sI113732
I1722
sI113733
I1334
sI113734
I1445
sI1162311
I1142
sI113736
I1834
sI1162314
I1376
sI113747
I1889
sI113752
I2112
sI113759
I1443
sI113760
I1241
sI106342
I2081
sI113766
I1716
sI113767
I1649
sI113768
I778
sI113775
I1134
sI113777
I1445
sI113778
I1124
sI113781
I1142
sI1162359
I792
sI113786
I2022
sI113788
I830
sI113792
I2362
sI113794
I1557
sI113795
I1833
sI113797
I2897
sI113798
I1238
sI113800
I2030
sI1162377
I2588
sI113809
I1555
sI113812
I1324
sI113814
I2130
sI113817
I1310
sI113818
I1672
sI113820
I2029
sI113821
I1324
sI113824
I1780
sI1162401
I1780
sI113828
I1262
sI113829
I1705
sI113836
I1909
sI122738
I10534
sI113838
I1008
sI113839
I2017
sI113840
I1163
sI113841
I1241
sI113842
I2000
sI113844
I1334
sI113847
I2021
sI113850
I1017
sI113851
I1662
sI113852
I2131
sI113853
I1951
sI1162431
I1919
sI113856
I1955
sI1129665
I5287
sI1129666
I9093
sI113860
I1189
sI113862
I1234
sI1129671
I2496
sI81096
I6948
sI81097
I7359
sI1129674
I2714
sI81099
I2108
sI113869
I1344
sI81102
I2181
sI113872
I1241
sI113874
I2213
sI113877
I2050
sI81110
I3433
sI81111
I1661
sI81112
I1329
sI81113
I5118
sI1129691
I4891
sI113884
I2193
sI81118
I4402
sI113887
I1806
sI81120
I3803
sI81121
I2656
sI1162467
I1856
sI113892
I2161
sI81125
I1893
sI81128
I3021
sI81129
I2115
sI113898
I2003
sI81131
I1778
sI81132
I2224
sI81133
I1336
sI1162479
I1779
sI81136
I2778
sI81137
I1956
sI81138
I1902
sI81139
I3958
sI113908
I1667
sI113909
I4049
sI1129718
I1571
sI105268
I1077
sI1129720
I1159
sI1129721
I2007
sI1129722
I3273
sI113915
I2425
sI113916
I7333
sI1129725
I3875
sI1162495
I2383
sI113922
I2857
sI1129731
I2982
sI1129732
I1984
sI113926
I1799
sI1129735
I4108
sI113928
I2834
sI113931
I1782
sI1129740
I1750
sI81165
I1157
sI113934
I1123
sI113935
I778
sI1129744
I2742
sI1162513
I2407
sI1129746
I4007
sI81171
I2816
sI113940
I857
sI1129750
I0
sI1129751
I1990
sI81179
I1157
sI1162524
I746
sI81181
I2205
sI1129758
I1996
sI1129759
I3017
sI1129762
I958
sI1129764
I4112
sI1129766
I9102
sI81191
I2113
sI81192
I2983
sI81193
I778
sI113963
I2449
sI113966
I783
sI1162545
I2566
sI1162546
I3334
sI113972
I2177
sI81205
I3645
sI81208
I3780
sI113977
I2259
sI113978
I2989
sI1162555
I1111
sI113980
I2780
sI113982
I1992
sI113983
I3967
sI1129794
I4588
sI1129798
I3877
sI81223
I3630
sI113992
I5706
sI81226
I1889
sI81227
I4466
sI113996
I896
sI81229
I3841
sI1129808
I3593
sI114003
I2007
sI1129812
I2214
sI81237
I3081
sI114006
I3706
sI1129815
I3321
sI114008
I1111
sI81241
I2559
sI114010
I1018
sI1129819
I1922
sI114012
I1989
sI1129824
I2788
sI1129826
I6457
sI1162596
I2383
sI114021
I1327
sI1129830
I2910
sI1129833
I3027
sI1129834
I2994
sI1129836
I2224
sI1129837
I1990
sI1129838
I0
sI1129839
I2146
sI114032
I6564
sI81266
I1076
sI1129844
I2356
sI114037
I2659
sI81270
I992
sI114040
I2746
sI114042
I2556
sI81275
I1991
sI114046
I999
sI81279
I2441
sI114049
I1917
sI1129858
I3062
sI81283
I1908
sI114052
I2921
sI1162629
I2771
sI81286
I1780
sI81287
I2766
sI81289
I2073
sI81290
I992
sI114060
I993
sI114061
I2007
sI81294
I2267
sI114063
I2152
sI81296
I1991
sI1129873
I1114
sI81299
I1992
sI81303
I2977
sI81304
I2111
sI81305
I1328
sI1129882
I3009
sI81307
I2000
sI81308
I3105
sI114078
I2903
sI81312
I2034
sI81313
I1991
sI1129890
I2002
sI81315
I2990
sI81317
I992
sI81318
I1780
sI1129895
I349
sI81320
I2002
sI81321
I2080
sI114090
I1828
sI114092
I1336
sI1162671
I2576
sI1162674
I2470
sI114104
I2022
sI1162681
I5466
sI1162683
I2890
sI114111
I4339
sI114115
I1986
sI114116
I4732
sI114124
I1663
sI1162701
I1098
sI114127
I2214
sI114128
I1454
sI1162705
I1843
sI114130
I1004
sI114134
I2279
sI114135
I0
sI114136
I2943
sI114141
I1937
sI1162719
I222
sI114144
I1921
sI114145
I1472
sI114148
I1000
sI1162725
I2007
sI1162581
I2344
sI114151
I2236
sI1162731
I2007
sI114157
I2004
sI114160
I2002
sI114163
I1871
sI114164
I1911
sI114165
I2998
sI114166
I1999
sI1162743
I2113
sI114169
I2000
sI114170
I0
sI114171
I2685
sI1162750
I999
sI111872
I2983
sI114181
I1753
sI114182
I1388
sI1162761
I2964
sI114186
I1425
sI114188
I1099
sI114192
I2985
sI114193
I994
sI114196
I2334
sI114199
I2445
sI114200
I1076
sI114201
I889
sI114202
I2154
sI114204
I2787
sI114208
I2004
sI114007
I1256
sI114211
I2903
sI1162791
I2001
sI114216
I2764
sI1162795
I2053
sI114220
I1000
sI1162797
I1004
sI114222
I1114
sI114226
I2352
sI114230
I2002
sI114231
I1334
sI114234
I2028
sI114236
I1992
sI114238
I1670
sI114241
I3579
sI114242
I1581
sI114244
I2993
sI1162821
I2111
sI114248
I1565
sI114250
I2057
sI1162827
I1667
sI114253
I2075
sI114254
I2056
sI1162833
I1447
sI114260
I2985
sI114261
I1362
sI114265
I3087
sI114266
I1222
sI1155002
I415
sI1162585
I2954
sI114272
I3152
sI114273
I3253
sI114278
I1044
sI114280
I1564
sI114285
I2115
sI114286
I2082
sI114287
I2002
sI114290
I1778
sI114291
I1669
sI114292
I1322
sI114294
I2003
sI114295
I667
sI114297
I3871
sI114298
I2000
sI114302
I2070
sI114303
I3973
sI114304
I2002
sI114306
I1076
sI114309
I1987
sI114310
I1082
sI114312
I4888
sI114314
I2993
sI114315
I2497
sI114316
I1039
sI114318
I2000
sI114319
I1993
sI114320
I2076
sI114322
I1757
sI1162899
I7064
sI114325
I994
sI114326
I2059
sI114333
I2127
sI1162911
I2891
sI114336
I1733
sI114340
I2002
sI114342
I3897
sI114344
I3000
sI1162923
I1107
sI114348
I2152
sI114349
I1555
sI114351
I1076
sI114352
I1449
sI114355
I2913
sI114356
I2995
sI114358
I3693
sI1162935
I3106
sI114360
I911
sI114361
I2111
sI111903
I1519
sI1162941
I3002
sI114367
I1000
sI114368
I1966
sI114373
I993
sI114374
I2070
sI114375
I4421
sI114376
I2002
sI1162953
I13799
sI114378
I1497
sI114379
I2000
sI114381
I1750
sI114382
I262
sI1162959
I0
sI114385
I2872
sI114386
I3675
sI114388
I4795
sI114390
I1000
sI114391
I1762
sI114392
I1975
sI114394
I2009
sI114397
I1903
sI1162974
I1917
sI1162975
I1498
sI114400
I1445
sI1162977
I1917
sI114403
I0
sI114410
I1990
sI114411
I2147
sI114412
I2154
sI1162989
I1159
sI114414
I1993
sI114416
I3985
sI114417
I672
sI114420
I1861
sI114421
I2128
sI114422
I1992
sI114424
I1572
sI114426
I2965
sI114430
I2000
sI114435
I3322
sI1163013
I1814
sI114439
I2005
sI114440
I1086
sI114442
I1680
sI1155031
I2002
sI114445
I2287
sI114447
I5071
sI114452
I2085
sI114454
I1986
sI1163031
I1221
sI1163034
I2215
sI114459
I1347
sI1163037
I1892
sI114462
I2338
sI114466
I1352
sI114468
I1058
sI1163047
I1196
sI114472
I1136
sI1163049
I1222
sI114474
I1036
sI114476
I1914
sI114478
I1346
sI1160499
I2911
sI114484
I2079
sI1163062
I3053
sI114488
I1105
sI114495
I2252
sI114499
I2745
sI114500
I3888
sI114504
I3171
sI114508
I1989
sI114510
I1455
sI1163090
I1986
sI1163091
I2961
sI1163095
I2122
sI114524
I3144
sI1163101
I2111
sI114531
I1076
sI114532
I2076
sI1163109
I1993
sI114538
I3323
sI114540
I1976
sI114018
I2358
sI1163120
I2150
sI114545
I3584
sI1163126
I1780
sI1163127
I2004
sI114554
I3550
sI114555
I0
sI114556
I3567
sI1163134
I2807
sI114559
I0
sI114561
I3602
sI114562
I2341
sI122859
I5223
sI114564
I0
sI114566
I1625
sI114567
I3116
sI114571
I3413
sI114573
I2155
sI114576
I2701
sI114582
I2115
sI114583
I3574
sI114586
I2449
sI122863
I4245
sI114591
I3562
sI1163169
I2986
sI114594
I6015
sI114596
I3324
sI114601
I2005
sI114603
I2152
sI114604
I2003
sI114606
I3186
sI114608
I2000
sI122867
I1578
sI114614
I6892
sI114616
I2706
sI1163193
I1246
sI114619
I745
sI114620
I1884
sI114621
I1076
sI1163202
I2003
sI1160523
I1120
sI1163204
I2329
sI1163205
I1085
sI114630
I1669
sI114633
I3193
sI1163211
I2559
sI114639
I1764
sI1163217
I3006
sI114646
I2909
sI1163223
I2989
sI114649
I1000
sI114652
I667
sI1163229
I2128
sI114654
I2787
sI122875
I3083
sI114661
I2962
sI114663
I2411
sI114666
I1414
sI114667
I1418
sI114672
I2583
sI114674
I1907
sI114676
I1993
sI114679
I3233
sI114686
I2004
sI114687
I1859
sI114690
I3554
sI114691
I1004
sI114693
I1671
sI114697
I1666
sI114698
I2442
sI1163276
I746
sI1163277
I1111
sI114702
I509
sI114703
I1544
sI114704
I2340
sI114708
I2517
sI114715
I2771
sI114723
I3194
sI1163301
I2648
sI114726
I2135
sI114728
I1572
sI114729
I1799
sI1163306
I910
sI114732
I4096
sI114735
I2972
sI114736
I2073
sI1163313
I2073
sI114739
I1010
sI114740
I1987
sI114741
I1252
sI114742
I2518
sI114744
I1893
sI114748
I1749
sI1163325
I0
sI1171330
I4713
sI114752
I1159
sI114753
I2329
sI114756
I3028
sI114758
I779
sI114759
I1528
sI1163336
I1655
sI114762
I2081
sI114765
I2453
sI114766
I1004
sI114770
I3069
sI114771
I1980
sI114772
I1336
sI1163349
I2884
sI114774
I3334
sI114777
I1334
sI122895
I5107
sI114780
I1333
sI114026
I2084
sI114782
I1445
sI111973
I2071
sI114786
I2069
sI114788
I904
sI1163366
I6116
sI114791
I386
sI114795
I9643
sI114796
I5448
sI114805
I2346
sI114807
I1943
sI1163385
I2025
sI114813
I333
sI114818
I2410
sI1151692
I837
sI1163397
I1329
sI114826
I2085
sI114833
I4059
sI114837
I0
sI114838
I2001
sI122757
I4560
sI114841
I1741
sI114844
I1556
sI1163421
I2164
sI114847
I1556
sI114849
I1780
sI114854
I910
sI114855
I893
sI114856
I2645
sI122908
I1528
sI114858
I1782
sI114862
I2794
sI114865
I835
sI114866
I782
sI114867
I1334
sI114868
I590
sI114870
I2576
sI1162605
I2673
sI114872
I1263
sI114873
I947
sI114876
I1446
sI114878
I1663
sI114879
I1555
sI114882
I1591
sI114885
I3252
sI122913
I1691
sI114888
I1417
sI114892
I2000
sI114895
I1078
sI114900
I3190
sI114902
I3146
sI111993
I2887
sI114906
I2335
sI114908
I3363
sI1163486
I2328
sI1160571
I1672
sI114916
I1158
sI114919
I4838
sI114921
I2535
sI114922
I7590
sI1163499
I937
sI114925
I272
sI114926
I2686
sI114929
I2666
sI114937
I3279
sI114944
I0
sI114952
I1404
sI114958
I1000
sI122925
I3705
sI114960
I1490
sI114961
I0
sI1163539
I0
sI1163540
I865
sI122926
I2567
sI114976
I9951
sI114980
I2833
sI1163559
I587
sI114985
I6214
sI114989
I4377
sI114996
I7697
sI114997
I347
sI1163576
I1009
sI122932
I1660
sI115003
I959
sI1130815
I1471
sI115008
I394
sI115010
I2184
sI115012
I4284
sI1163589
I2472
sI115015
I13380
sI115017
I3107
sI122935
I3139
sI115021
I496
sI115022
I3159
sI115023
I8834
sI115029
I3369
sI122937
I1000
sI115034
I1389
sI115039
I2527
sI115040
I1771
sI1171515
I6134
sI115048
I967
sI115050
I1886
sI106557
I2820
sI115062
I0
sI115066
I5481
sI115070
I2474
sI115073
I1496
sI115078
I912
sI1163655
I1917
sI115082
I595
sI90178
I1996
sI1163673
I167
sI115099
I4554
sI1163679
I264
sI115106
I1913
sI115113
I6762
sI106568
I3950
sI122954
I938
sI122955
I2582
sI1155151
I1988
sI122962
I2337
sI122971
I2003
sI122972
I3066
sI101127
I3861
sI122973
I1439
sI122975
I918
sI122977
I1891
sI122979
I3659
sI122982
I6362
sI122983
I3426
sI112065
I992
sI122988
I5075
sI1155181
I599
sI122993
I2706
sI1160649
I1826
sI1155189
I4012
sI123003
I3294
sI123004
I4710
sI123006
I2608
sI123008
I2389
sI1157169
I1111
sI123010
I2000
sI123012
I6278
sI114050
I2919
sI1155221
I2993
sI112112
I2111
sI112124
I1070
sI109692
I3820
sI109694
I1115
sI1149792
I3234
sI104242
I1001
sI112155
I1919
sI1155278
I1279
sI1144362
I3701
sI83204
I909
sI112173
I1986
sI112179
I3182
sI112180
I1157
sI1160757
I3027
sI112196
I3129
sI95817
I4427
sI1151737
I2251
sI112209
I1819
sI1158285
I2162
sI114074
I2117
sI112213
I538
sI112215
I1818
sI1155332
I1022
sI106758
I828
sI112220
I1409
sI1160799
I3107
sI1144420
I3859
sI1132175
I5676
sI83604
I4598
sI1132186
I3059
sI112245
I998
sI83665
I2672
sI112251
I1843
sI112254
I2791
sI1138985
I1788
sI1155376
I3038
sI106803
I0
sI114088
I3531
sI106833
I1490
sI83957
I5854
sI112302
I1593
sI95919
I3951
sI95921
I3859
sI112312
I2543
sI1160889
I880
sI112314
I2994
sI1155436
I1432
sI112323
I1157
sI106862
I2973
sI112328
I2000
sI79566
I911
sI95952
I2043
sI85032
I2572
sI112340
I2983
sI1160919
I2008
sI95960
I3182
sI1160921
I993
sI112354
I165
sI1132912
I608
sI1160937
I3561
sI95979
I4499
sI1161953
I672
sI1160943
I3115
sI84467
I3148
sI84489
I1779
sI1133083
I1694
sI1133085
I10217
sI84511
I7446
sI1144583
I3142
sI1161954
I1447
sI96024
I4561
sI1155525
I2157
sI1133231
I3502
sI106953
I2728
sI1133248
I16219
sI1155531
I753
sI84686
I4045
sI1133293
I3672
sI106963
I2685
sI1133307
I1772
sI84733
I3078
sI84734
I3517
sI1178759
I3757
sI112443
I1114
sI84840
I5657
sI1133470
I4357
sI84899
I0
sI1133510
I2744
sI84936
I3522
sI1133608
I3457
sI1133609
I1191
sI107020
I2472
sI1158603
I1032
sI1155633
I2113
sI85292
I6554
sI1133869
I6644
sI85296
I3784
sI1133873
I1447
sI1133875
I11275
sI1161097
I1075
sI1133901
I7316
sI1155648
I3420
sI112535
I1354
sI85396
I10691
sI112550
I1736
sI96171
I3002
sI1161132
I1928
sI112564
I1908
sI107105
I4477
sI1155693
I2846
sI96196
I1907
sI1155705
I1988
sI1161169
I2211
sI1134356
I4250
sI85297
I4364
sI104332
I1995
sI122559
I4146
sI112620
I3613
sI109796
I2000
sI109799
I2072
sI1156574
I1895
sI112681
I1992
sI1150335
I1527
sI1155797
I3058
sI109806
I2887
sI112701
I3093
sI122563
I8121
sI112719
I2072
sI1151841
I1514
sI1155844
I2668
sI1155848
I222
sI123678
I3123
sI109821
I1880
sI1155886
I2990
sI107315
I1078
sI1155897
I2113
sI122919
I2778
sI1172313
I1933
sI119940
I2198
sI119944
I1573
sI1155971
I1842
sI123783
I1994
sI1155977
I1994
sI1155979
I2924
sI1161441
I2002
sI112866
I2113
sI1135996
I0
sI96492
I3906
sI109842
I1016
sI1155999
I1413
sI1157405
I889
sI107428
I965
sI107433
I3073
sI110058
I3189
sI122941
I1515
sI96529
I3113
sI122945
I0
sI1171522
I3217
sI112935
I0
sI1156058
I1066
sI122949
I1653
sI111586
I1896
sI1136486
I1387
sI1150610
I1643
sI1151888
I1981
sI107510
I0
sI1152081
I4182
sI1156094
I1464
sI112989
I1186
sI1159719
I1901
sI107543
I1681
sI109868
I993
sI113007
I2519
sI113013
I993
sI109870
I2051
sI110968
I3002
sI121264
I5188
sI1161637
I2414
sI107603
I837
sI1157367
I2826
sI113099
I1875
sI113103
I529
sI102187
I1994
sI1170181
I3406
sI1170182
I1778
sI121620
I1075
sI121621
I3571
sI121623
I3582
sI121624
I1179
sI121625
I3468
sI121632
I3662
sI121635
I2569
sI121636
I3598
sI121651
I2730
sI121653
I3149
sI121663
I2898
sI121665
I5567
sI121668
I5725
sI121672
I4512
sI121674
I2239
sI121679
I4118
sI121682
I2518
sI121684
I1705
sI121685
I3601
sI121688
I2403
sI121692
I2667
sI1170273
I672
sI1170276
I3211
sI121702
I4121
sI1170279
I1889
sI109892
I2366
sI121709
I4776
sI121716
I1880
sI121717
I3338
sI121719
I5366
sI121720
I3284
sI121724
I2692
sI1170303
I1742
sI121731
I6789
sI121735
I4967
sI121738
I2609
sI121742
I2863
sI121753
I4338
sI121761
I3380
sI121762
I1940
sI1156253
I5441
sI122989
I2007
sI107685
I3093
sI1156279
I2856
sI1150818
I426
sI1158477
I2599
sI1145375
I5264
sI122997
I2836
sI1162845
I3146
sI1156308
I1084
sI122130
I2654
sI1156315
I2484
sI111235
I3105
sI1156321
I2073
sI122583
I10814
sI102292
I1778
sI1156336
I1010
sI89510
I2779
sI1156339
I1990
sI1138110
I3455
sI1138116
I4769
sI107766
I2020
sI1138118
I3143
sI89543
I7571
sI89548
I0
sI1138127
I2335
sI1138128
I7805
sI1138130
I4389
sI1138132
I3740
sI1138137
I474
sI1138140
I4078
sI1138145
I3558
sI1138146
I6680
sI1138150
I3875
sI1138152
I2768
sI1138155
I3917
sI1138159
I3898
sI1138164
I4049
sI1138167
I4700
sI1138169
I1222
sI1138171
I3415
sI1138173
I4130
sI1138179
I4055
sI1138180
I2073
sI1138181
I1110
sI1138184
I3743
sI1138187
I2730
sI1138188
I3486
sI1138190
I4393
sI1138191
I10418
sI89618
I2489
sI1138197
I3618
sI1138198
I1111
sI1138202
I2633
sI1138204
I1865
sI1138207
I1572
sI1138208
I1984
sI89635
I2721
sI1138212
I6056
sI1138215
I0
sI1138216
I1934
sI1138217
I3659
sI1138222
I3980
sI1138223
I1217
sI1138227
I3246
sI1161822
I1124
sI109916
I2002
sI1138239
I2404
sI1138244
I0
sI1138250
I6359
sI1138254
I2784
sI1156365
I1583
sI1138256
I1841
sI1138260
I1917
sI1138262
I1750
sI1138263
I2417
sI89689
I999
sI1138266
I3123
sI1138274
I579
sI1138275
I2851
sI1138276
I1246
sI89701
I1998
sI1138278
I777
sI89707
I1667
sI122476
I1631
sI1138287
I1986
sI110146
I3058
sI1138290
I778
sI109918
I2073
sI1138295
I3026
sI1138296
I5328
sI1138298
I3042
sI1138299
I2047
sI1129066
I0
sI1138302
I2105
sI1138303
I2090
sI1138304
I5967
sI1138306
I2123
sI89731
I2886
sI1138308
I3106
sI1138311
I2089
sI89736
I2069
sI1156375
I2983
sI1138316
I2212
sI1138318
I3859
sI1138320
I4905
sI1138322
I0
sI1138324
I1896
sI1138328
I2135
sI1138330
I2003
sI1138332
I1908
sI1138335
I2804
sI113264
I1333
sI1138339
I2475
sI1138341
I3675
sI1138344
I5411
sI1138350
I1903
sI1138351
I4653
sI1138352
I2525
sI1138354
I2984
sI1161843
I2631
sI1138356
I7377
sI122554
I1435
sI1138363
I3156
sI1138366
I1336
sI1138367
I1992
sI122560
I2212
sI1138370
I3149
sI1138371
I3098
sI1138374
I3519
sI1138375
I1080
sI1129079
I4991
sI1171148
I3533
sI1138381
I3826
sI1138382
I2094
sI1138384
I1530
sI113272
I2859
sI1138386
I2041
sI1138390
I4204
sI1138391
I1991
sI1138393
I1136
sI1138394
I4841
sI1138395
I2152
sI1138396
I1084
sI1138399
I2686
sI1138400
I3230
sI1138404
I2553
sI1138405
I1771
sI1138406
I2074
sI1138408
I1902
sI1138409
I827
sI109922
I1445
sI1138414
I1921
sI1138415
I1000
sI1138418
I1993
sI1138420
I2016
sI1138422
I2824
sI1138424
I999
sI89852
I3731
sI1138431
I3851
sI113280
I2284
sI1156395
I2406
sI89860
I1496
sI1138439
I2933
sI122634
I1816
sI1138443
I1643
sI1138445
I3403
sI1138446
I2222
sI1171215
I0
sI1138449
I620
sI1171218
I3144
sI122643
I2903
sI1138452
I1549
sI1138454
I1999
sI1138455
I1986
sI122648
I3056
sI1138457
I2726
sI122650
I3242
sI1171227
I841
sI122652
I2871
sI1138461
I1075
sI1138462
I2792
sI1138463
I1291
sI1171234
I2357
sI122659
I4886
sI1138468
I4144
sI1138471
I3001
sI1138473
I0
sI1138474
I0
sI122668
I8724
sI1138477
I4050
sI89902
I2854
sI1138479
I2910
sI122672
I4791
sI1138481
I2799
sI1138485
I1686
sI1138492
I3982
sI1138493
I0
sI1138494
I1442
sI1138495
I1076
sI122688
I4022
sI1138497
I3870
sI1171266
I9609
sI1138501
I3864
sI1138503
I4086
sI122696
I4726
sI1138505
I2973
sI1138506
I1982
sI1138507
I1531
sI1138508
I990
sI1138510
I3071
sI122705
I11652
sI122708
I7140
sI89949
I1909
sI1138530
I3068
sI1138531
I3502
sI1138532
I2297
sI1138540
I3697
sI89965
I4027
sI89968
I343
sI89970
I999
sI1138547
I1937
sI1138548
I1075
sI122742
I9905
sI1138551
I1892
sI89976
I1111
sI1138553
I2825
sI89978
I1000
sI1171327
I3623
sI1138561
I1886
sI89986
I1886
sI89988
I1993
sI89989
I1000
sI89991
I1964
sI1138568
I2688
sI1138570
I1000
sI1138572
I1992
sI122766
I3445
sI90002
I2908
sI90007
I1489
sI1138584
I999
sI90009
I917
sI1138587
I1158
sI1138591
I1674
sI1138594
I1172
sI1138595
I1114
sI1138597
I1000
sI90022
I2573
sI1138599
I331
sI1138600
I2072
sI1138601
I2016
sI1156423
I2273
sI1138608
I2487
sI90033
I2469
sI90036
I2000
sI1138614
I2074
sI1138616
I2074
sI1138617
I993
sI1138619
I2000
sI1138620
I1991
sI90045
I1389
sI1138623
I1525
sI1138625
I1977
sI1138627
I999
sI1138629
I3487
sI122822
I5036
sI1138631
I2745
sI90059
I993
sI1138636
I1974
sI1138637
I3001
sI1138639
I1821
sI90067
I2564
sI90068
I2053
sI90072
I3613
sI90073
I1021
sI1138650
I2018
sI90075
I3432
sI90077
I4004
sI90078
I1341
sI90081
I3120
sI90083
I1913
sI90084
I1986
sI90085
I2005
sI90086
I3495
sI122855
I2324
sI90091
I1958
sI122860
I2491
sI90094
I1988
sI90095
I1986
sI90097
I1999
sI90099
I2234
sI122869
I4552
sI122871
I2900
sI122872
I1780
sI90105
I2588
sI90106
I2220
sI1158507
I3405
sI90112
I2548
sI90113
I1133
sI90114
I1992
sI90116
I1974
sI90117
I1951
sI90120
I1674
sI122889
I2575
sI122890
I3366
sI90123
I1993
sI90127
I1910
sI90128
I1910
sI90129
I1871
sI90131
I1014
sI1138710
I1999
sI90135
I1997
sI122904
I5862
sI90138
I3670
sI1138715
I1932
sI90140
I2010
sI90142
I2996
sI102405
I2652
sI1138721
I2812
sI122914
I277
sI90147
I1999
sI122916
I3754
sI122917
I2830
sI1138727
I1114
sI90154
I2735
sI90156
I4189
sI1138733
I3394
sI90158
I3745
sI122927
I2489
sI122929
I1560
sI122930
I2985
sI1138740
I4723
sI90165
I4993
sI122934
I1933
sI90167
I2000
sI1138745
I3253
sI122938
I1325
sI90171
I2250
sI90172
I2626
sI90173
I2981
sI1138751
I2651
sI122944
I2074
sI90177
I2000
sI122946
I918
sI90179
I2223
sI1138757
I2111
sI90182
I2163
sI90185
I2817
sI90186
I1222
sI1138763
I1016
sI122956
I1361
sI122957
I2490
sI1171535
I2077
sI122960
I2896
sI1138769
I2492
sI1138770
I1737
sI122964
I1893
sI122965
I3345
sI1138775
I3635
sI90201
I2736
sI122970
I3629
sI90203
I2118
sI90204
I1803
sI1138781
I4692
sI90207
I2002
sI90208
I0
sI90209
I1489
sI90211
I2274
sI1138788
I2816
sI122981
I2002
sI90214
I3464
sI90215
I2111
sI90216
I2734
sI113340
I2856
sI90220
I1328
sI90221
I2657
sI122990
I2494
sI122991
I1014
sI90225
I1938
sI90228
I4009
sI90229
I1558
sI90232
I2561
sI123001
I2595
sI1138811
I2321
sI90236
I1727
sI90237
I1737
sI90238
I1246
sI90240
I1270
sI123009
I1225
sI1138818
I1666
sI90244
I2362
sI1171589
I0
sI90248
I4430
sI90250
I2299
sI90251
I2817
sI1138829
I2187
sI90255
I1606
sI90257
I1822
sI90258
I976
sI90260
I2816
sI90264
I2038
sI90266
I893
sI90271
I2414
sI1138848
I1261
sI90278
I2622
sI90280
I3782
sI90287
I2276
sI90288
I3645
sI90290
I1328
sI90294
I2118
sI1138871
I2295
sI90296
I1889
sI90297
I1991
sI90300
I2073
sI1138877
I1020
sI1138878
I910
sI90303
I2583
sI1138883
I3276
sI90311
I3136
sI90312
I2206
sI1138889
I2235
sI1138890
I2079
sI1156471
I2477
sI90317
I3081
sI1129165
I0
sI90320
I1671
sI1138897
I3253
sI1138898
I2487
sI90323
I3447
sI90324
I2545
sI90328
I2506
sI1151012
I2739
sI1138908
I1550
sI90333
I2486
sI90335
I3260
sI90336
I1246
sI1138913
I2805
sI90338
I2148
sI90340
I2498
sI90346
I672
sI90348
I2196
sI1138925
I777
sI90350
I2393
sI1156477
I1896
sI90353
I1745
sI90354
I2077
sI1161939
I1538
sI90358
I2338
sI1138937
I3039
sI1138938
I3310
sI90363
I1349
sI90364
I1519
sI1138943
I3454
sI90368
I2007
sI90369
I1031
sI90370
I2329
sI90372
I1986
sI111678
I2646
sI90376
I1991
sI90378
I1895
sI1138955
I2400
sI90383
I2074
sI1138961
I2440
sI90386
I2866
sI90387
I2651
sI90389
I2442
sI90390
I2480
sI1138968
I1411
sI1138973
I2734
sI90399
I1003
sI90401
I3083
sI113371
I445
sI90405
I2998
sI90408
I2700
sI90409
I3078
sI90418
I1709
sI90419
I1419
sI1138997
I1375
sI90424
I993
sI96991
I3424
sI90428
I1341
sI90429
I2064
sI90432
I2719
sI113376
I2624
sI1139010
I1861
sI90437
I3193
sI90438
I2627
sI1139015
I1501
sI90442
I2690
sI102455
I3085
sI90444
I1598
sI1139021
I1032
sI90450
I1469
sI90451
I1377
sI1139029
I2034
sI90454
I2066
sI90456
I1074
sI1139033
I992
sI90459
I1902
sI1139039
I1061
sI90464
I1055
sI90466
I3472
sI1139045
I1300
sI90471
I2647
sI90473
I1789
sI1139051
I1324
sI1139052
I2242
sI90479
I1010
sI90480
I797
sI1139057
I1308
sI1139059
I990
sI90491
I2786
sI90492
I667
sI1139069
I3996
sI1139070
I3771
sI90495
I2819
sI90497
I2080
sI90498
I2377
sI1139075
I4061
sI90504
I751
sI1161964
I9212
sI90507
I1003
sI90510
I995
sI1139087
I3069
sI1139089
I2016
sI90514
I2298
sI1139093
I1055
sI90518
I6419
sI1139099
I2968
sI90527
I3618
sI1156507
I2007
sI90532
I2997
sI90534
I0
sI1139111
I2882
sI90539
I3287
sI1139116
I3607
sI1139118
I3714
sI90544
I2549
sI90545
I1667
sI90546
I1556
sI1139123
I953
sI90548
I2769
sI90550
I2098
sI80628
I2437
sI90556
I1583
sI90557
I0
sI90558
I970
sI1139136
I2325
sI90561
I484
sI90562
I1929
sI1161975
I4590
sI1139158
I4807
sI1158523
I1004
sI1139180
I6302
sI1156521
I2475
sI80652
I4003
sI1156537
I996
sI1139319
I4248
sI1156545
I2696
sI113431
I8991
sI1172112
I5215
sI1172114
I3852
sI123549
I670
sI1156549
I1175
sI123553
I3719
sI123567
I4265
sI123572
I4016
sI1156555
I1127
sI111046
I1111
sI123593
I555
sI1158531
I2579
sI123628
I1445
sI123636
I11516
sI113449
I3769
sI113450
I2304
sI123650
I5051
sI123651
I6775
sI123652
I2606
sI123655
I4387
sI123658
I4889
sI1156567
I2993
sI123660
I4307
sI123662
I2182
sI123663
I3709
sI123664
I999
sI1172241
I2274
sI123666
I2560
sI123668
I1945
sI123669
I3825
sI123671
I14272
sI123673
I9392
sI113455
I1494
sI1172254
I4580
sI123684
I6471
sI109958
I1982
sI1156572
I1031
sI123691
I7443
sI123694
I9776
sI123695
I3214
sI123698
I3487
sI123701
I3074
sI123703
I2451
sI123704
I5654
sI123709
I3733
sI113461
I698
sI123712
I3039
sI123714
I1911
sI123717
I1408
sI123720
I2889
sI123722
I1896
sI123723
I2529
sI1172304
I5271
sI123732
I3020
sI123736
I3545
sI123737
I585
sI123739
I1945
sI123741
I2864
sI123745
I3893
sI109960
I1984
sI123750
I4448
sI123752
I4855
sI123755
I728
sI1172340
I2910
sI123781
I12818
sI123782
I1580
sI113473
I0
sI123785
I7325
sI123787
I2091
sI123788
I3224
sI113475
I2447
sI123796
I2225
sI1162053
I0
sI1151136
I1001
sI113483
I867
sI1156357
I2769
sI1151993
I3687
sI113487
I2411
sI113490
I8076
sI97115
I3103
sI1172548
I6514
sI123986
I683
sI1162083
I2156
sI1172579
I2555
sI124034
I4781
sI1172635
I4578
sI1172640
I4972
sI102599
I2004
sI1172672
I750
sI124100
I3864
sI124449
I3516
sI1172680
I3000
sI109972
I2223
sI1172705
I2372
sI1172767
I2708
sI1172769
I0
sI1172817
I1257
sI1172821
I286
sI1172826
I1638
sI124251
I4061
sI124252
I6937
sI124253
I5296
sI124255
I2749
sI109977
I2072
sI124257
I0
sI124258
I3130
sI111249
I1556
sI1140094
I13430
sI97175
I4981
sI1151220
I1161
sI102650
I1991
sI1161831
I1752
sI124441
I0
sI97200
I5986
sI1161834
I3071
sI113259
I1909
sI102675
I1780
sI124576
I3944
sI1173220
I10099
sI1173221
I3614
sI124729
I0
sI124730
I3512
sI109994
I1921
sI1156763
I2023
sI1156766
I2758
sI1125842
I3586
sI1156785
I1470
sI2134365
I0
sI113276
I1662
sI130066
I6502
sI125038
I1785
sI1173627
I1346
sI1143304
I1232
sI1178650
I4893
sI108231
I3505
sI108238
I1368
sI110007
I1151
sI104490
I4972
sI130088
I2726
sI2134399
I2002
sI130090
I5769
sI1162443
I2603
sI1151364
I2426
sI110012
I2111
sI1178689
I7084
sI108269
I2931
sI1141183
I2912
sI1141188
I4385
sI1141190
I4645
sI1141193
I3161
sI1161864
I999
sI1141196
I3558
sI1141197
I1927
sI1178701
I5520
sI1141200
I3509
sI1141204
I452
sI1141205
I2408
sI1141206
I2424
sI1141208
I1307
sI1141216
I5324
sI1141217
I5132
sI1141219
I2223
sI1141226
I2633
sI1141230
I6226
sI1141236
I795
sI1141237
I3124
sI1141242
I658
sI1141244
I3666
sI1141246
I6153
sI1141249
I9318
sI1141252
I5595
sI1141254
I2556
sI1141256
I4771
sI1141257
I4587
sI1141262
I4210
sI1141268
I3401
sI1141272
I5421
sI1141277
I2244
sI1141278
I0
sI1141279
I2071
sI1141280
I1000
sI92708
I1338
sI1141287
I13190
sI1141288
I5458
sI1141290
I1565
sI1141291
I3588
sI1141297
I4379
sI1141299
I4447
sI1141303
I4411
sI1141306
I4008
sI1141307
I4293
sI1141309
I5293
sI1141311
I3654
sI1141314
I2785
sI1141317
I1102
sI92748
I4809
sI1141327
I6065
sI1141333
I3857
sI1141337
I4744
sI1141338
I3249
sI1141340
I3706
sI1141342
I4000
sI1141344
I2405
sI1141345
I3070
sI1141347
I2179
sI1141348
I711
sI1141356
I3064
sI1141357
I2785
sI1151421
I1998
sI1141361
I4600
sI1141362
I1088
sI1141363
I3984
sI1141366
I3422
sI1141367
I7035
sI1141369
I1111
sI1141371
I2212
sI1141377
I3601
sI1141378
I1099
sI1141379
I2566
sI1141382
I3451
sI1141384
I3023
sI1141387
I1993
sI92812
I2191
sI92813
I2075
sI1141391
I3355
sI92820
I2619
sI92826
I3142
sI1141403
I3895
sI1141405
I4344
sI1141408
I2630
sI1141410
I4843
sI1141411
I1911
sI1141415
I5092
sI1141419
I4175
sI92845
I1913
sI92849
I3021
sI92852
I3540
sI92859
I1993
sI1141436
I3001
sI125629
I1553
sI92866
I782
sI92867
I1004
sI92871
I2003
sI1141449
I5396
sI92874
I3069
sI92876
I4170
sI92878
I4979
sI92883
I4253
sI92887
I3283
sI92891
I6898
sI92896
I3143
sI92897
I937
sI92901
I3609
sI92903
I1028
sI92907
I2581
sI92908
I2000
sI92909
I2072
sI92911
I3593
sI92912
I1891
sI92916
I981
sI92919
I3671
sI92922
I2565
sI92926
I2010
sI92928
I3419
sI92931
I2740
sI92934
I3269
sI92939
I8811
sI92941
I2120
sI92942
I2300
sI92943
I2193
sI1141520
I3304
sI92945
I2113
sI92947
I2905
sI92949
I2846
sI92953
I2059
sI92958
I2881
sI110026
I2066
sI92961
I2905
sI92965
I3053
sI92966
I2910
sI92967
I993
sI92968
I4015
sI1151452
I4989
sI92971
I2203
sI92973
I1986
sI92976
I2090
sI92979
I2505
sI92982
I2188
sI92987
I1076
sI1141565
I2317
sI1141566
I4099
sI92993
I3018
sI1141572
I2269
sI92998
I1769
sI93001
I3378
sI93005
I3056
sI93006
I3683
sI130189
I2478
sI93009
I2722
sI93011
I2975
sI93013
I4330
sI93014
I3492
sI93020
I1490
sI93022
I1707
sI1141599
I1531
sI93024
I0
sI1178768
I7900
sI93029
I1943
sI93033
I3774
sI93036
I7180
sI93042
I4190
sI93044
I3886
sI93047
I1463
sI93049
I1902
sI108351
I1460
sI93054
I5868
sI93057
I5879
sI1141635
I4514
sI93063
I3136
sI93065
I4302
sI108354
I2377
sI93070
I3070
sI93071
I1247
sI93073
I1905
sI93076
I934
sI93077
I2741
sI93081
I4291
sI93082
I1082
sI93084
I911
sI93085
I2823
sI93087
I1947
sI93088
I4494
sI93094
I2894
sI1156935
I2599
sI93102
I2994
sI93107
I994
sI93108
I2740
sI93109
I1249
sI93111
I4920
sI93115
I3235
sI93116
I3413
sI93117
I4896
sI93118
I5658
sI93119
I2113
sI93121
I1584
sI93123
I2314
sI93125
I3451
sI93133
I2025
sI93135
I2742
sI93137
I1055
sI93140
I1941
sI93142
I2261
sI93146
I2288
sI93147
I2727
sI1141726
I1344
sI93151
I2536
sI93157
I2613
sI1141736
I2691
sI93162
I2853
sI93164
I5297
sI93168
I2213
sI93171
I3391
sI1141748
I3861
sI1141755
I2066
sI1141756
I1779
sI93182
I3147
sI93185
I3112
sI93186
I2408
sI93188
I2016
sI93189
I1912
sI93191
I2938
sI93197
I2188
sI93198
I3059
sI93199
I1245
sI110034
I1990
sI93202
I2076
sI93206
I1676
sI93207
I3105
sI93210
I1746
sI93215
I3317
sI93216
I3193
sI93218
I3365
sI93224
I4276
sI93228
I3056
sI93230
I2114
sI93233
I1004
sI93234
I1165
sI93235
I2918
sI93237
I3023
sI93240
I2450
sI93245
I3167
sI93246
I2490
sI93248
I1642
sI93249
I2117
sI93252
I4368
sI93253
I4112
sI111127
I1990
sI93259
I3510
sI93264
I3489
sI93265
I2734
sI93271
I9171
sI93272
I3685
sI93277
I1794
sI93278
I8415
sI93290
I3454
sI93293
I1426
sI93298
I2045
sI93304
I4169
sI93308
I3248
sI1141886
I7439
sI1141887
I1164
sI93312
I2009
sI93314
I2160
sI93316
I1789
sI93318
I2515
sI113857
I1921
sI110038
I2650
sI93321
I4788
sI93329
I4004
sI93337
I1266
sI93340
I4367
sI93342
I3586
sI1141919
I4000
sI93348
I3707
sI93350
I420
sI93351
I2816
sI93352
I2755
sI102940
I858
sI93356
I3710
sI93358
I2689
sI93360
I4140
sI93363
I5349
sI102942
I3980
sI1141944
I1414
sI93371
I2113
sI93372
I1814
sI113866
I1256
sI1141950
I1889
sI93376
I2018
sI1141953
I2919
sI1129675
I3172
sI93380
I1434
sI93384
I1159
sI1141961
I1470
sI93387
I1159
sI93388
I2001
sI93390
I835
sI1141967
I2114
sI93392
I2391
sI93393
I2156
sI93394
I1111
sI93396
I1342
sI113870
I326
sI93398
I1000
sI93402
I2165
sI93404
I2007
sI93406
I1837
sI93407
I2291
sI93408
I2287
sI93414
I2876
sI93416
I3402
sI93417
I1744
sI93419
I4107
sI93420
I4068
sI93421
I3056
sI93422
I2573
sI93423
I2223
sI93425
I2997
sI93426
I1986
sI93428
I2249
sI93430
I2176
sI93434
I2037
sI93437
I2118
sI1142015
I2984
sI110042
I3140
sI93441
I4007
sI93442
I3346
sI93444
I1160
sI93447
I2468
sI93454
I1127
sI93456
I1774
sI93457
I2686
sI93458
I2754
sI93460
I1882
sI93461
I5560
sI93464
I2299
sI93468
I4177
sI93470
I3126
sI93480
I1984
sI93484
I2400
sI93485
I2090
sI93486
I3727
sI96950
I2498
sI93488
I1160
sI93489
I3221
sI93490
I2319
sI93493
I1988
sI93500
I3756
sI113888
I2163
sI93506
I2166
sI93507
I1988
sI93509
I2083
sI93513
I2406
sI93518
I1394
sI93519
I5963
sI93521
I1988
sI93522
I2113
sI93525
I2307
sI93526
I2908
sI93530
I2904
sI93532
I1709
sI1151546
I1581
sI93534
I1657
sI93537
I1698
sI93538
I2636
sI93540
I889
sI93545
I3728
sI93546
I2783
sI93548
I3252
sI93550
I3472
sI93551
I1225
sI112228
I1517
sI93554
I2823
sI93556
I4380
sI93557
I2620
sI93558
I2894
sI110046
I2004
sI93566
I6019
sI93568
I2283
sI93571
I4939
sI93573
I2155
sI93574
I3238
sI113900
I1556
sI93581
I5249
sI93582
I2770
sI1142159
I2013
sI93584
I652
sI93587
I4642
sI1142165
I395
sI93590
I3019
sI93593
I889
sI1142172
I1161
sI93597
I510
sI93598
I4897
sI1142175
I2421
sI1142182
I2037
sI1142183
I4583
sI1142187
I2430
sI1142195
I5278
sI93623
I2774
sI93627
I4005
sI93632
I6120
sI108448
I2985
sI93634
I2666
sI96955
I1994
sI93638
I3917
sI1151564
I1889
sI93642
I1993
sI93643
I2986
sI1142220
I1081
sI93646
I2572
sI93648
I1908
sI113912
I1962
sI93651
I2186
sI93652
I2075
sI1142234
I3021
sI113914
I1250
sI93663
I2163
sI93664
I1992
sI93665
I2804
sI93667
I2075
sI93668
I3825
sI93669
I2888
sI93671
I1773
sI93676
I2067
sI93677
I3464
sI93678
I2038
sI93679
I4342
sI93680
I3959
sI93681
I2949
sI93682
I3552
sI2134611
I2661
sI93684
I6477
sI93687
I978
sI93689
I2073
sI93690
I1914
sI1142271
I2822
sI1142274
I4009
sI1142278
I4200
sI1142286
I1011
sI1142287
I1489
sI93715
I1000
sI1142292
I1082
sI1142293
I1076
sI1142295
I999
sI1142297
I2815
sI1142298
I2002
sI1142300
I1986
sI1142301
I1032
sI1142304
I999
sI1142305
I1009
sI1142310
I2158
sI1143352
I3070
sI1142312
I2112
sI1142313
I1275
sI1142317
I1138
sI1142320
I3723
sI1142323
I6911
sI1142324
I4047
sI1142328
I2358
sI1142331
I4150
sI93757
I2082
sI93763
I3276
sI1157048
I4536
sI1142356
I2165
sI1142358
I2813
sI1142359
I3412
sI1142360
I2147
sI1142362
I2666
sI1142365
I2045
sI1142366
I2002
sI1142367
I2994
sI93796
I4951
sI93797
I1987
sI113937
I2843
sI1142377
I2037
sI1142379
I1076
sI113938
I5526
sI1142383
I4051
sI93808
I4844
sI1142386
I2000
sI93812
I1994
sI1142389
I3082
sI1142390
I2417
sI93817
I3444
sI1142395
I3186
sI1142396
I1931
sI1142400
I3068
sI1142403
I1986
sI113942
I524
sI1142407
I4028
sI1142408
I2958
sI1142411
I2567
sI1142414
I3402
sI1142416
I4997
sI1142419
I2585
sI1151598
I1999
sI1142422
I3468
sI1142424
I3505
sI1142425
I1846
sI1142428
I2111
sI1142433
I2958
sI1142435
I2521
sI1142437
I1937
sI1142439
I3528
sI1142440
I11576
sI93865
I701
sI1142443
I2221
sI1142446
I2039
sI1142448
I1285
sI1142451
I2574
sI113950
I696
sI1142455
I3233
sI1142456
I2660
sI1142457
I1334
sI1142458
I3932
sI1142462
I3838
sI1142464
I1082
sI1142467
I1991
sI1142468
I2842
sI1142471
I2664
sI1142475
I2979
sI1142477
I889
sI1142481
I331
sI1142482
I1992
sI1142483
I2052
sI1142484
I2450
sI1142488
I2986
sI113956
I1602
sI1142490
I1468
sI1142491
I4132
sI1142497
I2109
sI1142498
I5932
sI113958
I2568
sI1142502
I2080
sI1157073
I1135
sI1162535
I1269
sI1142508
I4546
sI1142512
I2987
sI1142513
I3788
sI1142514
I1325
sI1142517
I3068
sI1142519
I4549
sI93946
I5288
sI1142537
I2600
sI1142538
I2904
sI1142539
I3744
sI1142540
I1413
sI93967
I0
sI93968
I1437
sI1142545
I2361
sI1142547
I1544
sI1142548
I3462
sI93975
I1998
sI1142553
I1978
sI1142555
I3700
sI1142557
I2505
sI1142559
I3389
sI93986
I1911
sI1142563
I2388
sI1142569
I2836
sI1142573
I3658
sI1142577
I3954
sI1142579
I1063
sI1142582
I3114
sI103049
I497
sI1142585
I544
sI1142587
I1609
sI1142589
I1402
sI1142590
I0
sI1142594
I2768
sI1142595
I1366
sI1142598
I5038
sI1142599
I2200
sI1142600
I3579
sI1142603
I3089
sI1142604
I1893
sI1142607
I2843
sI1142609
I3070
sI1142610
I2982
sI1142613
I1089
sI1142614
I2192
sI1142616
I3365
sI1142617
I994
sI1142618
I2159
sI1142620
I1668
sI1142621
I1988
sI1142622
I2895
sI1142623
I2008
sI1142624
I2004
sI1142625
I2585
sI1142632
I3220
sI94060
I2159
sI1142638
I2083
sI1142639
I4238
sI1142641
I2080
sI1142642
I3236
sI94067
I2926
sI1142646
I2161
sI94072
I4074
sI1142649
I2237
sI94075
I2319
sI1142660
I2908
sI1142661
I1897
sI1142662
I2877
sI1142663
I6725
sI1142666
I2669
sI94093
I2014
sI94102
I6683
sI1142681
I3282
sI94106
I1549
sI1142686
I2077
sI1142687
I1582
sI94113
I3114
sI1142690
I1934
sI1142693
I3602
sI113338
I1000
sI1142698
I1160
sI113991
I2778
sI1142700
I3023
sI1142701
I2002
sI1142702
I1988
sI1142705
I3192
sI1142708
I2248
sI1142709
I3512
sI94139
I778
sI94145
I3850
sI1142723
I2386
sI1142726
I3204
sI1142728
I2905
sI1142731
I1222
sI94156
I1747
sI1142733
I2711
sI94158
I3876
sI1129805
I546
sI1142736
I1029
sI1142737
I3589
sI1142743
I3882
sI1142747
I3297
sI1142748
I4122
sI1142751
I1550
sI1142753
I4784
sI1142756
I4242
sI1142759
I2096
sI1142760
I4088
sI94191
I2606
sI94192
I4780
sI1142771
I2650
sI94200
I1894
sI114004
I1324
sI1142781
I3170
sI94206
I3884
sI94207
I4000
sI94209
I1932
sI94212
I2145
sI94213
I6087
sI94214
I889
sI94215
I1358
sI81239
I2396
sI1142796
I2118
sI1142797
I1897
sI1142798
I2485
sI94223
I2264
sI1142801
I5959
sI94231
I0
sI94236
I2459
sI1142813
I3788
sI94238
I2696
sI94242
I2392
sI94244
I298
sI1142822
I5868
sI94248
I2000
sI1142826
I3578
sI1142831
I3347
sI1142833
I2382
sI1142834
I1334
sI1142837
I3896
sI94264
I2286
sI94269
I11268
sI81248
I3530
sI94274
I3793
sI1142851
I7036
sI94277
I2025
sI94281
I18850
sI1142861
I13521
sI1142867
I3419
sI1142868
I6655
sI1142869
I4201
sI1142874
I12488
sI94302
I4069
sI1142879
I4376
sI1142881
I2840
sI94316
I4071
sI1142893
I4365
sI1142896
I699
sI94327
I4118
sI94328
I2896
sI94331
I4593
sI1142909
I3014
sI94338
I3009
sI1142915
I3770
sI1142917
I1923
sI94342
I2190
sI1142921
I3903
sI94347
I2155
sI1142925
I2081
sI94350
I3960
sI1142927
I1903
sI94355
I999
sI1142932
I2863
sI1142938
I0
sI1142939
I3166
sI94364
I1076
sI94365
I4047
sI1142946
I2107
sI94372
I1891
sI94374
I830
sI1142951
I3104
sI94376
I1082
sI94377
I2152
sI94379
I2164
sI94380
I3320
sI1142958
I1159
sI94384
I2048
sI94385
I2152
sI94386
I3969
sI1142963
I1121
sI94388
I1159
sI94392
I3084
sI114036
I2900
sI1142976
I1164
sI1142978
I2235
sI1142979
I2081
sI94404
I2002
sI94406
I2902
sI94409
I0
sI94410
I2002
sI1142988
I1969
sI1142996
I2075
sI94422
I1053
sI94424
I3069
sI94425
I1986
sI1143003
I2111
sI1143004
I2115
sI94433
I2605
sI1129851
I2878
sI94436
I1891
sI1143014
I2075
sI1143015
I2113
sI1143016
I2002
sI1143019
I2884
sI94445
I1889
sI1143024
I2224
sI1143025
I1780
sI1143026
I2069
sI94451
I1992
sI94452
I1986
sI1143033
I1986
sI94458
I2995
sI1162623
I2378
sI94464
I1993
sI94465
I2002
sI1143044
I3988
sI1143048
I1077
sI1143049
I3068
sI1143052
I0
sI1143053
I1076
sI1143054
I2010
sI1143055
I2152
sI1143057
I4568
sI1143058
I2014
sI1143059
I1889
sI1143060
I3193
sI1143062
I2976
sI1151705
I1814
sI110077
I2067
sI94495
I1082
sI1143074
I1242
sI1143075
I2586
sI1143076
I2247
sI1143079
I1797
sI1143082
I2943
sI1143085
I2154
sI1143087
I1014
sI1143088
I2008
sI1143090
I2924
sI1143091
I1124
sI1143093
I3008
sI1143094
I2129
sI1162633
I5211
sI1143097
I2153
sI1143099
I1225
sI1143100
I1000
sI114058
I5343
sI94526
I2113
sI1143103
I1049
sI1143104
I2064
sI1143105
I2113
sI94534
I3958
sI94536
I1076
sI1143116
I1993
sI1143117
I1987
sI1143118
I2152
sI1143119
I4152
sI1143120
I917
sI1143123
I2247
sI1143129
I2786
sI1143131
I2000
sI1143134
I2000
sI1143135
I2111
sI1143136
I1987
sI1143138
I2002
sI1143139
I2918
sI1143141
I1111
sI1143145
I1886
sI1143147
I994
sI1143149
I2438
sI1143151
I2077
sI1143153
I1076
sI1143154
I1558
sI1143155
I2536
sI1143156
I1715
sI1143157
I1684
sI1143158
I1911
sI1143160
I2000
sI1157565
I2404
sI1143163
I911
sI94588
I2779
sI1143166
I2796
sI1143168
I0
sI1143169
I2000
sI1143171
I2652
sI1143174
I0
sI94599
I8022
sI1143177
I2777
sI1162647
I2990
sI1143180
I6069
sI1151725
I1243
sI1143184
I5980
sI1143189
I3083
sI1143193
I3726
sI1143195
I3648
sI1143196
I2126
sI1143197
I993
sI1143198
I1082
sI1143199
I1164
sI1143200
I2075
sI1143201
I993
sI114075
I3275
sI1143204
I993
sI1143206
I1992
sI114076
I2156
sI1143211
I2075
sI1143212
I2119
sI1143213
I3063
sI1143214
I1778
sI94640
I2986
sI1143219
I3112
sI1143220
I3889
sI94648
I1992
sI1143229
I3584
sI94655
I3111
sI1143237
I1998
sI94664
I2508
sI1143241
I3223
sI1143243
I3542
sI1143244
I2075
sI114082
I3096
sI1143249
I3633
sI1162659
I3029
sI1143252
I3911
sI1143255
I4002
sI1143256
I2979
sI1143257
I1897
sI1143260
I2882
sI1143261
I1088
sI1143262
I2799
sI1143265
I1340
sI1143267
I1241
sI1143268
I2069
sI94695
I2992
sI1143272
I1000
sI1143273
I2082
sI1143274
I1082
sI81319
I3314
sI1143276
I2000
sI1143278
I3973
sI1143279
I2445
sI1129896
I2782
sI1143282
I3083
sI1143283
I2069
sI1143284
I2000
sI1143286
I2997
sI1162665
I1669
sI1143288
I2069
sI1143289
I3993
sI1143290
I1986
sI1143292
I4075
sI1143295
I2000
sI1143300
I3993
sI94727
I2638
sI94728
I2631
sI1143306
I566
sI1143309
I459
sI1143311
I2765
sI1143312
I1851
sI1143315
I1289
sI1143316
I2324
sI1143318
I1813
sI1143320
I2000
sI1143322
I0
sI1143323
I1077
sI1143326
I2925
sI1143329
I2868
sI1143330
I1988
sI1143331
I4005
sI1143333
I3989
sI1143334
I0
sI1143336
I2188
sI1143337
I2891
sI1143339
I2076
sI1143340
I3987
sI1143341
I2076
sI1143343
I2000
sI1143344
I2994
sI1143349
I4699
sI94776
I2928
sI1143355
I2975
sI1143357
I2070
sI1143358
I2114
sI1143361
I1114
sI1143363
I3299
sI1143365
I2982
sI1143367
I1988
sI1143368
I1987
sI1143369
I1987
sI1143375
I1896
sI1143381
I3000
sI1143383
I3388
sI1143384
I2251
sI1143385
I0
sI1143386
I2918
sI1143387
I4120
sI1143388
I3965
sI1143392
I2559
sI1143398
I3561
sI94825
I2247
sI1143402
I2975
sI1143403
I2002
sI1143406
I2499
sI1143408
I2425
sI1143409
I3506
sI1143411
I2000
sI1143413
I3325
sI1143415
I2816
sI1151764
I2112
sI1143419
I1077
sI1143420
I1994
sI1143421
I2113
sI1143422
I3553
sI1143425
I1000
sI1143426
I0
sI1143427
I4190
sI1143428
I6109
sI1143431
I2918
sI1143433
I1995
sI1143436
I3070
sI1143438
I2002
sI1143439
I1994
sI1143443
I8696
sI1143445
I3514
sI1143448
I2002
sI1143449
I2786
sI94874
I0
sI94875
I2938
sI1143452
I3913
sI1151770
I2997
sI1143456
I2000
sI1143459
I3768
sI1143466
I3153
sI94893
I7288
sI94894
I5158
sI1151773
I2084
sI94899
I3580
sI94902
I1083
sI1143480
I2669
sI1143481
I2540
sI1143482
I2013
sI94908
I2965
sI1143485
I1995
sI1143486
I2988
sI1143487
I1911
sI1143489
I1111
sI1143492
I2331
sI1143493
I2749
sI94918
I1912
sI1143495
I3000
sI94924
I2971
sI1143502
I3195
sI1143503
I3749
sI94929
I11814
sI94931
I5111
sI94935
I2984
sI94938
I4002
sI94939
I5336
sI94948
I4059
sI94953
I7159
sI94955
I2002
sI94957
I1000
sI94958
I2996
sI94965
I2077
sI94974
I2917
sI94978
I2113
sI94979
I2993
sI1143557
I3021
sI94982
I3967
sI94984
I3157
sI94987
I3607
sI1143567
I4555
sI94992
I0
sI94993
I2896
sI94994
I2995
sI94995
I1111
sI94999
I3935
sI1143576
I1159
sI95001
I2987
sI95004
I1000
sI95006
I3004
sI95007
I1000
sI1143584
I1000
sI95010
I3498
sI95014
I1937
sI95016
I2073
sI113368
I0
sI1143598
I2111
sI95025
I546
sI95028
I3299
sI1143606
I2004
sI95031
I2885
sI95034
I3560
sI95039
I2349
sI1143617
I1132
sI95042
I2957
sI95043
I2112
sI95044
I1407
sI95045
I1407
sI95046
I2755
sI95048
I0
sI95051
I0
sI95053
I3714
sI95057
I1830
sI95058
I3211
sI95063
I778
sI95064
I7483
sI95067
I4112
sI95069
I3960
sI1156490
I2113
sI1157268
I3004
sI104642
I1995
sI113372
I1804
sI97778
I2497
sI95208
I1870
sI95216
I13850
sI1156495
I2915
sI1143804
I2693
sI1143807
I1447
sI95235
I3255
sI1143813
I3107
sI1162753
I2113
sI1143817
I1563
sI95243
I3447
sI95247
I7005
sI95256
I6053
sI95264
I22311
sI1143848
I10110
sI1143849
I0
sI95274
I6942
sI1143859
I12210
sI1143862
I3259
sI1143863
I13920
sI1143867
I12663
sI95297
I3866
sI95303
I6945
sI95304
I4829
sI95308
I1959
sI95310
I6995
sI95312
I5346
sI95321
I7400
sI95330
I1054
sI95333
I5152
sI95336
I4287
sI1143923
I5513
sI1143929
I3834
sI95356
I3451
sI95358
I3084
sI95360
I1111
sI1143937
I2893
sI95362
I2644
sI95366
I6547
sI95369
I3859
sI95372
I2640
sI1143951
I6687
sI95376
I3143
sI114471
I1241
sI95378
I3750
sI95381
I2386
sI1143966
I4136
sI95391
I1411
sI95399
I6292
sI95400
I5777
sI1157319
I1900
sI95404
I3323
sI95406
I5212
sI95411
I6083
sI95413
I726
sI95415
I6974
sI95423
I2745
sI95430
I3536
sI95434
I3944
sI95445
I311
sI77375
I3865
sI1144027
I5648
sI95458
I2159
sI2129791
I1558
sI95460
I8003
sI1144039
I6345
sI103293
I4000
sI95474
I5162
sI95477
I1418
sI95480
I3213
sI95482
I6743
sI95485
I4632
sI95486
I7170
sI95488
I301
sI95489
I2282
sI95492
I2146
sI95497
I4453
sI95498
I2002
sI95502
I634
sI95507
I13868
sI95512
I4438
sI95514
I7247
sI1144091
I2798
sI95517
I3081
sI1144097
I3511
sI95526
I1212
sI95527
I5167
sI95533
I2476
sI108765
I3936
sI95536
I2169
sI95538
I2150
sI95539
I2154
sI95547
I3952
sI95549
I1221
sI95550
I4905
sI95551
I3341
sI95556
I2184
sI95559
I1862
sI95564
I1008
sI95569
I7907
sI95575
I3634
sI1144152
I2975
sI95577
I2418
sI95580
I1988
sI95581
I1778
sI95582
I3406
sI95583
I4686
sI1144160
I2163
sI95585
I7576
sI95587
I995
sI95588
I14549
sI95591
I3782
sI95596
I2075
sI1144174
I3556
sI1144192
I10387
sI1144193
I6354
sI95621
I10995
sI95627
I2830
sI95637
I0
sI1144222
I5352
sI1144223
I3794
sI110116
I667
sI95674
I363
sI95680
I6135
sI95686
I1380
sI1144267
I6288
sI95692
I4384
sI1144276
I5762
sI1144279
I2823
sI1144280
I614
sI103334
I2002
sI110118
I1486
sI95730
I2160
sI95738
I3103
sI95739
I17421
sI95747
I3449
sI95750
I2453
sI1144327
I4615
sI95755
I2919
sI95756
I2702
sI1144338
I3959
sI95764
I4444
sI95766
I3325
sI95771
I2417
sI95772
I1222
sI95778
I10070
sI1144358
I6154
sI1144359
I10180
sI95784
I1990
sI95786
I2003
sI1144364
I996
sI95791
I2113
sI95792
I1198
sI95802
I4435
sI95803
I3302
sI95810
I3374
sI1144393
I4216
sI95818
I5465
sI95824
I0
sI1144402
I5161
sI114486
I2261
sI95828
I2699
sI103354
I2000
sI1144414
I2952
sI111213
I2250
sI1144417
I3740
sI95843
I6316
sI95844
I1461
sI95848
I3558
sI95852
I5682
sI95856
I2365
sI95857
I3145
sI1161972
I3838
sI95862
I3629
sI95864
I3102
sI95868
I3735
sI1144445
I3153
sI95871
I1816
sI95874
I2175
sI1157398
I1732
sI103361
I1004
sI95883
I1838
sI95884
I3519
sI95885
I2341
sI95887
I16213
sI95894
I2137
sI95895
I2729
sI95896
I3781
sI95898
I2691
sI95901
I4707
sI95905
I5101
sI95907
I4236
sI95909
I5144
sI95911
I2118
sI1144495
I5405
sI95920
I3107
sI1144497
I4704
sI95922
I1736
sI95924
I2622
sI95925
I4470
sI95928
I2126
sI110125
I2023
sI1144518
I1978
sI1144520
I3813
sI95945
I1998
sI1144523
I2692
sI103373
I1018
sI1144528
I3714
sI1144529
I1427
sI1144531
I5740
sI1144533
I2505
sI95958
I1833
sI1144536
I2810
sI95961
I4170
sI95965
I0
sI1144543
I3523
sI95968
I2242
sI95971
I3505
sI1177316
I3464
sI1144553
I3491
sI1144555
I0
sI95981
I3406
sI95984
I1913
sI95986
I1927
sI95988
I3210
sI95991
I4360
sI95996
I4179
sI95999
I2257
sI96002
I3435
sI1144581
I1325
sI96007
I4534
sI96009
I1943
sI96011
I1997
sI96012
I3109
sI1144590
I2020
sI96016
I2495
sI96018
I4163
sI96021
I939
sI1144600
I837
sI1144602
I8650
sI1144603
I2087
sI96028
I2910
sI96029
I7627
sI96039
I5137
sI96042
I3023
sI96043
I4285
sI96048
I4347
sI1158705
I2986
sI96054
I8155
sI96057
I782
sI1151967
I2079
sI96060
I5345
sI96063
I5186
sI96073
I3695
sI96076
I1035
sI96078
I1974
sI96081
I5581
sI96084
I3188
sI96088
I2554
sI96089
I2079
sI96090
I6994
sI96091
I4123
sI96093
I3559
sI96096
I4428
sI96098
I8133
sI96100
I2160
sI96102
I2340
sI96103
I2882
sI96106
I1990
sI96107
I4474
sI96114
I3178
sI96119
I3458
sI96124
I2815
sI96126
I3784
sI96128
I2667
sI96131
I11157
sI1144717
I8797
sI96145
I3772
sI96146
I5107
sI96149
I3477
sI96150
I4663
sI96154
I3575
sI1144734
I2991
sI96159
I3070
sI96162
I3585
sI1144740
I0
sI96169
I9404
sI1144747
I7396
sI1144748
I4507
sI96175
I6493
sI1144759
I3095
sI96185
I7399
sI96187
I1686
sI96188
I3761
sI1144765
I3592
sI96193
I1891
sI96194
I2002
sI1144772
I426
sI96198
I2000
sI96199
I3524
sI96204
I5120
sI96206
I1322
sI96208
I2548
sI96215
I2669
sI1144792
I2971
sI1144793
I913
sI1144795
I2596
sI96220
I2760
sI96222
I2060
sI1144802
I3124
sI96230
I2334
sI96231
I7411
sI96232
I3426
sI1144812
I3724
sI96238
I3107
sI96239
I4810
sI96242
I2156
sI96244
I4196
sI103422
I2000
sI96248
I2156
sI1144826
I2169
sI96254
I7061
sI96256
I4839
sI96261
I1641
sI96265
I7225
sI96273
I7590
sI103427
I3156
sI96277
I3254
sI96279
I4325
sI96281
I8170
sI1144858
I1766
sI96285
I2948
sI96288
I2169
sI96289
I5847
sI96294
I2555
sI96297
I1451
sI96301
I1992
sI96310
I4503
sI96314
I12838
sI96316
I7106
sI1157472
I1337
sI96325
I8418
sI1144912
I4134
sI96337
I6125
sI96344
I755
sI96346
I2078
sI96350
I3632
sI96353
I2506
sI96356
I12806
sI96365
I2021
sI96368
I4980
sI96372
I2041
sI103444
I3987
sI96378
I7251
sI96381
I3522
sI1144958
I3089
sI96391
I4156
sI96405
I2113
sI96406
I3023
sI96410
I2985
sI96411
I5046
sI1144988
I2073
sI96415
I4339
sI96419
I4039
sI96421
I0
sI96423
I3073
sI96427
I2836
sI96431
I3168
sI96436
I1830
sI96437
I2645
sI96439
I3198
sI96441
I2078
sI96444
I1910
sI1145021
I3141
sI1145022
I1950
sI96447
I2910
sI96448
I2076
sI96451
I2118
sI96453
I2002
sI96456
I1349
sI96459
I2054
sI96462
I3972
sI96463
I1755
sI96466
I2002
sI96468
I1745
sI96469
I4181
sI96470
I2956
sI96476
I5225
sI96479
I3202
sI96483
I4102
sI96487
I3208
sI96488
I2556
sI96490
I912
sI1145068
I1424
sI96493
I6638
sI96495
I4112
sI96500
I4004
sI96502
I3112
sI96506
I2000
sI96508
I3161
sI96509
I1078
sI96514
I3642
sI96515
I2084
sI96517
I3019
sI96518
I3197
sI96520
I4129
sI96524
I2223
sI1145105
I1001
sI1145106
I1913
sI1145108
I1749
sI96534
I2130
sI96536
I2313
sI96541
I3193
sI1145118
I3752
sI96544
I4781
sI96545
I3005
sI96548
I2201
sI96549
I2882
sI96551
I2777
sI96552
I0
sI96554
I2156
sI1157511
I9462
sI96556
I2721
sI96564
I4562
sI96572
I4068
sI96574
I2593
sI96581
I5518
sI96587
I6178
sI96588
I2778
sI96592
I3323
sI1158723
I2118
sI96596
I2815
sI96597
I3837
sI96601
I9009
sI96603
I4808
sI96606
I2797
sI96609
I3909
sI96611
I2002
sI96613
I1662
sI96614
I2189
sI96616
I0
sI96618
I1166
sI96620
I2198
sI1145200
I2079
sI1145202
I1254
sI1145205
I1926
sI96630
I1575
sI96631
I2002
sI96632
I2195
sI96636
I1492
sI96639
I1558
sI96640
I2676
sI96641
I1884
sI96643
I1084
sI1145221
I2574
sI96646
I2193
sI96648
I995
sI96649
I0
sI96650
I2118
sI96651
I2162
sI1145228
I1410
sI96653
I2004
sI96658
I939
sI96659
I2004
sI96660
I2085
sI96662
I2111
sI96664
I1001
sI96665
I2111
sI96666
I1996
sI96671
I2004
sI96672
I2004
sI96676
I2404
sI96677
I1997
sI96678
I2002
sI96681
I1548
sI96684
I2500
sI96685
I2894
sI96686
I2458
sI96688
I2008
sI96692
I2111
sI96693
I1492
sI96695
I1001
sI96698
I3080
sI96699
I2003
sI1145281
I0
sI96706
I2910
sI96707
I1996
sI96708
I1845
sI96710
I2118
sI108961
I1743
sI104737
I7384
sI96715
I2073
sI96716
I2991
sI1157538
I0
sI96718
I2916
sI96721
I1000
sI96722
I1114
sI96723
I2079
sI96724
I2352
sI96729
I2167
sI96732
I1000
sI96734
I2000
sI96735
I1000
sI112334
I2238
sI96737
I2111
sI96738
I0
sI96741
I1990
sI1145318
I1424
sI96743
I1000
sI96745
I2685
sI96747
I1999
sI96748
I1844
sI96750
I1842
sI96752
I6111
sI96753
I5348
sI96755
I4615
sI96756
I3662
sI96761
I829
sI96763
I3735
sI96765
I2708
sI96766
I2002
sI96774
I2358
sI96778
I3832
sI96780
I7402
sI96781
I3994
sI96784
I2142
sI96786
I4912
sI96789
I3130
sI96799
I2515
sI96803
I3919
sI110154
I3074
sI96805
I3193
sI96810
I3598
sI96815
I3130
sI96822
I2718
sI96823
I4811
sI96824
I790
sI96829
I1556
sI1159822
I2371
sI96831
I1752
sI96833
I1771
sI96834
I1130
sI1163019
I4692
sI96839
I2671
sI1145416
I1492
sI96841
I2998
sI96844
I5339
sI96846
I2447
sI96847
I1912
sI96848
I3748
sI96850
I2566
sI96854
I2004
sI96855
I2784
sI96856
I2726
sI96859
I2759
sI96863
I5020
sI96869
I2338
sI96871
I1004
sI96873
I2476
sI96876
I4624
sI96879
I3461
sI96882
I3074
sI96884
I2498
sI96886
I3917
sI1145463
I3526
sI1145467
I1014
sI96892
I3806
sI96897
I4302
sI96900
I4990
sI96905
I11310
sI96913
I996
sI96914
I2436
sI96917
I2847
sI96920
I1079
sI1145498
I3335
sI96923
I2828
sI96928
I3107
sI96929
I3138
sI96930
I3984
sI96931
I3418
sI96932
I1089
sI96934
I4216
sI96937
I2250
sI96938
I3452
sI96944
I2085
sI96945
I3304
sI1145525
I1002
sI1145526
I5173
sI96951
I1649
sI96953
I1004
sI96954
I2942
sI1145531
I6568
sI96964
I2126
sI96966
I3059
sI96967
I2810
sI96968
I3086
sI96970
I935
sI96971
I1914
sI96974
I2980
sI96976
I1161
sI96979
I0
sI96980
I1255
sI1145557
I919
sI1145559
I2079
sI110160
I2446
sI96986
I2365
sI1145564
I0
sI96990
I2773
sI1145567
I3806
sI96994
I1340
sI96995
I981
sI96999
I0
sI97000
I4210
sI97002
I0
sI97003
I432
sI1145581
I790
sI97006
I3900
sI97007
I3140
sI97008
I4094
sI97012
I5675
sI97016
I2655
sI97020
I2258
sI97029
I3810
sI1145606
I4190
sI97036
I2000
sI97039
I2798
sI97040
I2286
sI97044
I4092
sI97045
I3137
sI97048
I2156
sI97050
I2000
sI97052
I1533
sI97053
I2002
sI97054
I1891
sI97056
I995
sI97057
I2927
sI97058
I2336
sI1157595
I2036
sI97061
I2999
sI97063
I399
sI1145642
I3104
sI1145645
I2919
sI1145646
I1238
sI1145647
I1904
sI97074
I2590
sI1145651
I2139
sI97076
I4252
sI1145655
I1914
sI97086
I1423
sI1145664
I2119
sI97090
I5182
sI97091
I2351
sI97093
I2699
sI1145671
I2916
sI97099
I700
sI97105
I3233
sI1145682
I3243
sI97107
I3704
sI1145686
I2930
sI97111
I2000
sI97112
I4411
sI1145691
I2335
sI97116
I1992
sI97118
I3071
sI1145695
I1992
sI97123
I4175
sI97126
I2998
sI1145713
I4053
sI97138
I5022
sI1145715
I4322
sI97140
I1709
sI97144
I3997
sI97146
I765
sI97148
I2626
sI97154
I1494
sI97156
I1640
sI97158
I1993
sI97159
I4988
sI97161
I2001
sI97166
I7780
sI1145743
I3989
sI97168
I2045
sI97172
I4323
sI1145751
I1909
sI97178
I1917
sI97180
I3678
sI97181
I9188
sI97184
I1352
sI97186
I7220
sI97188
I4055
sI97189
I1002
sI97198
I0
sI1145776
I2078
sI97201
I5873
sI97202
I6490
sI97208
I1334
sI97216
I2725
sI110168
I2800
sI97225
I2041
sI2129743
I1962
sI1145827
I5186
sI97255
I996
sI97256
I3440
sI97261
I3702
sI1178629
I8051
sI1145865
I1002
sI130059
I5013
sI97296
I3120
sI97298
I3629
sI97304
I3740
sI2128921
I1982
sI97306
I1826
sI1145883
I3142
sI2128927
I3760
sI97312
I4537
sI97314
I2905
sI97320
I3424
sI1145898
I1897
sI97325
I4116
sI97326
I2002
sI97327
I3543
sI97331
I3532
sI97333
I6235
sI130103
I3346
sI1178684
I6595
sI97341
I332
sI97342
I4372
sI130112
I7969
sI130113
I1074
sI97346
I6009
sI97347
I1778
sI130116
I3702
sI1178694
I5771
sI97352
I2347
sI2128969
I8659
sI130122
I3353
sI1145931
I3757
sI97356
I3002
sI97357
I2766
sI2128975
I4042
sI97360
I3990
sI1145939
I6659
sI97364
I2098
sI1145943
I3249
sI1145944
I743
sI1145945
I2016
sI1145950
I3616
sI97376
I856
sI97377
I2324
sI97381
I3581
sI97383
I1306
sI1145961
I2736
sI1145962
I2181
sI2129767
I2004
sI97388
I4795
sI97396
I4350
sI1145973
I2317
sI1145974
I3465
sI97399
I3640
sI97400
I4071
sI130170
I4491
sI1152191
I2019
sI1145980
I3526
sI130173
I5387
sI97407
I3257
sI1178755
I2774
sI1145988
I2283
sI1145991
I3890
sI1145994
I904
sI97421
I2589
sI1145998
I3489
sI130191
I2000
sI130192
I5039
sI1146002
I3662
sI1146003
I2525
sI97431
I2772
sI1146008
I2755
sI130203
I6049
sI130204
I992
sI1146014
I4092
sI130207
I4938
sI130210
I4396
sI97455
I1222
sI1146042
I2994
sI1146054
I4273
sI109089
I3940
sI109093
I950
sI1152211
I5810
sI97528
I1994
sI97531
I1996
sI97532
I3617
sI1146113
I2021
sI1146115
I1079
sI1179486
I5350
sI1146117
I0
sI1146118
I2023
sI1146121
I2998
sI1146124
I1909
sI1146125
I3053
sI1146126
I2075
sI97554
I1826
sI97555
I2666
sI97556
I2444
sI97559
I1182
sI1146139
I2903
sI97564
I3003
sI97565
I4560
sI2129797
I2893
sI97574
I2539
sI1146151
I4783
sI1146153
I6023
sI98183
I1937
sI97580
I1830
sI1146160
I7378
sI1146163
I5308
sI109762
I2067
sI1146165
I1882
sI97590
I2097
sI97592
I2785
sI97594
I2002
sI97595
I913
sI1146172
I1067
sI97598
I2851
sI97603
I3962
sI97605
I2047
sI97608
I1751
sI97610
I2998
sI97612
I4735
sI1146189
I3110
sI111508
I893
sI97618
I0
sI1146201
I4633
sI97626
I1636
sI1146204
I3829
sI1157691
I3063
sI97636
I830
sI97638
I0
sI97639
I97
sI1146217
I5916
sI1152231
I4645
sI97646
I2330
sI1157693
I3001
sI97649
I1494
sI97651
I1450
sI97653
I817
sI97655
I2679
sI1146232
I2565
sI97658
I2283
sI1146238
I1451
sI1146241
I2782
sI97666
I747
sI1146247
I5499
sI2129815
I3294
sI97676
I4556
sI1146253
I0
sI97679
I3667
sI1146256
I3828
sI97682
I1747
sI97684
I974
sI1146261
I6340
sI1146262
I4450
sI97687
I667
sI97689
I4487
sI97691
I1933
sI1146268
I670
sI97698
I6649
sI1146281
I6320
sI1146298
I3283
sI1146299
I2776
sI97727
I4379
sI97730
I962
sI1146308
I2743
sI97733
I1648
sI1146312
I0
sI1146316
I1430
sI97753
I2084
sI97754
I2109
sI97755
I1000
sI97758
I1888
sI97759
I1001
sI97760
I2557
sI97762
I2002
sI97765
I2984
sI97766
I8491
sI97769
I3885
sI97773
I0
sI97777
I1999
sI2136415
I1955
sI1146355
I2106
sI97780
I2330
sI97781
I2663
sI97782
I2002
sI1163177
I5699
sI97788
I3443
sI97789
I1896
sI97790
I3292
sI1146367
I1001
sI97792
I1504
sI97793
I3043
sI97794
I3208
sI97795
I4573
sI97798
I1993
sI97799
I2931
sI97801
I1907
sI1146381
I591
sI1146382
I1889
sI97807
I2899
sI97810
I0
sI1146387
I1921
sI97812
I1919
sI1146391
I1244
sI97816
I1891
sI97817
I1004
sI97818
I1000
sI97821
I3071
sI97824
I794
sI97827
I1889
sI1146405
I912
sI97830
I0
sI97831
I556
sI97832
I1990
sI97835
I1893
sI97836
I2905
sI97837
I3034
sI1146414
I3090
sI97839
I2196
sI97843
I4296
sI97845
I3393
sI97848
I1630
sI1146425
I1661
sI97855
I2745
sI97856
I2420
sI97858
I2692
sI97861
I3649
sI97863
I4610
sI97866
I2574
sI97870
I3665
sI97872
I3817
sI97877
I2671
sI97878
I3112
sI97883
I0
sI97886
I1657
sI97887
I1976
sI97890
I1274
sI97892
I3304
sI1146469
I2913
sI97895
I2126
sI97901
I2409
sI97903
I3480
sI97904
I2079
sI1146487
I3112
sI97912
I3099
sI97913
I2892
sI97916
I1162
sI97920
I3099
sI97923
I2225
sI97924
I0
sI1146503
I1927
sI97928
I2427
sI97930
I1244
sI97931
I2350
sI97932
I2164
sI97934
I1672
sI97937
I1997
sI98243
I995
sI1146517
I2433
sI97942
I2002
sI97943
I1002
sI1146520
I1871
sI97945
I2886
sI97947
I2336
sI97948
I4825
sI97949
I2018
sI1146531
I1111
sI97956
I2322
sI97957
I2571
sI97958
I2111
sI97959
I1779
sI97963
I2033
sI97965
I2177
sI97967
I2035
sI97968
I2352
sI97970
I1999
sI1146547
I1004
sI97972
I3131
sI1146553
I2448
sI97979
I1909
sI1146558
I2746
sI97983
I2994
sI97984
I2170
sI97985
I4142
sI97986
I0
sI97987
I3280
sI97989
I4488
sI98000
I4222
sI98001
I996
sI98002
I2080
sI98003
I3046
sI98004
I2222
sI98007
I2667
sI98010
I2903
sI98012
I2564
sI1146589
I3943
sI98018
I1447
sI1163135
I2155
sI1146598
I2074
sI98023
I3167
sI98024
I1914
sI1146601
I2553
sI1146602
I0
sI98027
I1913
sI98030
I2111
sI98031
I1002
sI98033
I3159
sI98035
I2051
sI98038
I2801
sI98040
I2027
sI98042
I1994
sI98043
I1997
sI98044
I1586
sI98048
I0
sI98051
I1701
sI98052
I919
sI1146629
I1558
sI98054
I5663
sI1146633
I1111
sI98059
I2475
sI98060
I1167
sI1146637
I0
sI98062
I1977
sI1146640
I1017
sI98065
I3982
sI98068
I1222
sI98069
I2810
sI98073
I5172
sI98077
I2995
sI98080
I3063
sI98081
I4150
sI98083
I3491
sI98086
I4718
sI98087
I5331
sI98094
I4770
sI98096
I2241
sI98101
I2239
sI1146679
I2164
sI1146683
I1976
sI98109
I3050
sI98114
I2199
sI98116
I4883
sI98117
I3002
sI98120
I1997
sI2129737
I1694
sI98123
I2809
sI98125
I3076
sI98127
I4782
sI98129
I3031
sI98130
I3007
sI98131
I1079
sI98135
I2660
sI98136
I2284
sI98137
I0
sI1146715
I1893
sI98141
I2222
sI98142
I3023
sI1146727
I1675
sI2129773
I2675
sI1146734
I2859
sI98159
I1653
sI1146736
I6693
sI1146739
I2829
sI98166
I1505
sI1146744
I3072
sI98172
I832
sI98173
I1085
sI98174
I2335
sI98175
I1112
sI1163243
I1497
sI98181
I1971
sI1146759
I2416
sI1146760
I1078
sI98186
I1778
sI1146763
I2003
sI98190
I3081
sI2129809
I2962
sI98194
I1997
sI1146771
I2002
sI1146773
I2912
sI1146774
I2002
sI1146775
I2113
sI98200
I3004
sI98204
I1995
sI2129821
I2771
sI98206
I2208
sI98208
I2993
sI98210
I5748
sI1146790
I2080
sI98215
I2860
sI1146793
I2494
sI98218
I2014
sI98219
I4000
sI1159863
I2257
sI2129839
I4125
sI98224
I2113
sI1146802
I3472
sI1146803
I2113
sI1146806
I2893
sI1146807
I995
sI1146808
I1447
sI1146809
I0
sI1146810
I2079
sI1146811
I2997
sI98236
I2032
sI98240
I1923
sI1146817
I1889
sI1146818
I1825
sI1146819
I2017
sI1146823
I1889
sI98249
I4043
sI1146827
I2893
sI98252
I2118
sI1146840
I2395
sI98267
I3174
sI1146845
I3228
sI98270
I2194
sI98273
I1806
sI98274
I2822
sI98275
I3041
sI1146853
I837
sI98279
I3006
sI98281
I3134
sI1146859
I2229
sI98286
I5102
sI1157800
I1653
sI98290
I3973
sI98291
I2885
sI1146870
I2699
sI1146872
I2995
sI98298
I2111
sI1146877
I2111
s.